
ACES_ECU.elf:     file format elf32-avr

Sections:
Idx Name          Size      VMA       LMA       File off  Algn
  0 .data         00000006  00800200  000012de  00001372  2**0
                  CONTENTS, ALLOC, LOAD, DATA
  1 .text         000012de  00000000  00000000  00000094  2**1
                  CONTENTS, ALLOC, LOAD, READONLY, CODE
  2 .bss          00000038  00800206  00800206  00001378  2**0
                  ALLOC
  3 .comment      00000030  00000000  00000000  00001378  2**0
                  CONTENTS, READONLY
  4 .note.gnu.avr.deviceinfo 00000040  00000000  00000000  000013a8  2**2
                  CONTENTS, READONLY
  5 .debug_aranges 00000160  00000000  00000000  000013e8  2**0
                  CONTENTS, READONLY, DEBUGGING
  6 .debug_info   00001cc2  00000000  00000000  00001548  2**0
                  CONTENTS, READONLY, DEBUGGING
  7 .debug_abbrev 00000ec8  00000000  00000000  0000320a  2**0
                  CONTENTS, READONLY, DEBUGGING
  8 .debug_line   00001167  00000000  00000000  000040d2  2**0
                  CONTENTS, READONLY, DEBUGGING
  9 .debug_frame  0000051c  00000000  00000000  0000523c  2**2
                  CONTENTS, READONLY, DEBUGGING
 10 .debug_str    000007c4  00000000  00000000  00005758  2**0
                  CONTENTS, READONLY, DEBUGGING
 11 .debug_loc    00000a55  00000000  00000000  00005f1c  2**0
                  CONTENTS, READONLY, DEBUGGING
 12 .debug_ranges 00000110  00000000  00000000  00006971  2**0
                  CONTENTS, READONLY, DEBUGGING

Disassembly of section .text:

00000000 <__vectors>:
       0:	65 c0       	rjmp	.+202    	; 0xcc <__ctors_end>
       2:	00 00       	nop
       4:	83 c0       	rjmp	.+262    	; 0x10c <__bad_interrupt>
       6:	00 00       	nop
       8:	81 c0       	rjmp	.+258    	; 0x10c <__bad_interrupt>
       a:	00 00       	nop
       c:	fa c3       	rjmp	.+2036   	; 0x802 <__vector_3>
       e:	00 00       	nop
      10:	7d c0       	rjmp	.+250    	; 0x10c <__bad_interrupt>
      12:	00 00       	nop
      14:	7b c0       	rjmp	.+246    	; 0x10c <__bad_interrupt>
      16:	00 00       	nop
      18:	79 c0       	rjmp	.+242    	; 0x10c <__bad_interrupt>
      1a:	00 00       	nop
      1c:	77 c0       	rjmp	.+238    	; 0x10c <__bad_interrupt>
      1e:	00 00       	nop
      20:	75 c0       	rjmp	.+234    	; 0x10c <__bad_interrupt>
      22:	00 00       	nop
      24:	73 c0       	rjmp	.+230    	; 0x10c <__bad_interrupt>
      26:	00 00       	nop
      28:	71 c0       	rjmp	.+226    	; 0x10c <__bad_interrupt>
      2a:	00 00       	nop
      2c:	6f c0       	rjmp	.+222    	; 0x10c <__bad_interrupt>
      2e:	00 00       	nop
      30:	6d c0       	rjmp	.+218    	; 0x10c <__bad_interrupt>
      32:	00 00       	nop
      34:	6b c0       	rjmp	.+214    	; 0x10c <__bad_interrupt>
      36:	00 00       	nop
      38:	69 c0       	rjmp	.+210    	; 0x10c <__bad_interrupt>
      3a:	00 00       	nop
      3c:	67 c0       	rjmp	.+206    	; 0x10c <__bad_interrupt>
      3e:	00 00       	nop
      40:	65 c0       	rjmp	.+202    	; 0x10c <__bad_interrupt>
      42:	00 00       	nop
      44:	63 c0       	rjmp	.+198    	; 0x10c <__bad_interrupt>
      46:	00 00       	nop
      48:	61 c0       	rjmp	.+194    	; 0x10c <__bad_interrupt>
      4a:	00 00       	nop
      4c:	5f c0       	rjmp	.+190    	; 0x10c <__bad_interrupt>
      4e:	00 00       	nop
      50:	5d c0       	rjmp	.+186    	; 0x10c <__bad_interrupt>
      52:	00 00       	nop
      54:	5b c0       	rjmp	.+182    	; 0x10c <__bad_interrupt>
      56:	00 00       	nop
      58:	59 c0       	rjmp	.+178    	; 0x10c <__bad_interrupt>
      5a:	00 00       	nop
      5c:	57 c0       	rjmp	.+174    	; 0x10c <__bad_interrupt>
      5e:	00 00       	nop
      60:	55 c0       	rjmp	.+170    	; 0x10c <__bad_interrupt>
      62:	00 00       	nop
      64:	ba c1       	rjmp	.+884    	; 0x3da <__vector_25>
      66:	00 00       	nop
      68:	51 c0       	rjmp	.+162    	; 0x10c <__bad_interrupt>
      6a:	00 00       	nop
      6c:	4f c0       	rjmp	.+158    	; 0x10c <__bad_interrupt>
      6e:	00 00       	nop
      70:	4d c0       	rjmp	.+154    	; 0x10c <__bad_interrupt>
      72:	00 00       	nop
      74:	4b c0       	rjmp	.+150    	; 0x10c <__bad_interrupt>
      76:	00 00       	nop
      78:	49 c0       	rjmp	.+146    	; 0x10c <__bad_interrupt>
      7a:	00 00       	nop
      7c:	47 c0       	rjmp	.+142    	; 0x10c <__bad_interrupt>
      7e:	00 00       	nop
      80:	45 c0       	rjmp	.+138    	; 0x10c <__bad_interrupt>
      82:	00 00       	nop
      84:	43 c0       	rjmp	.+134    	; 0x10c <__bad_interrupt>
      86:	00 00       	nop
      88:	41 c0       	rjmp	.+130    	; 0x10c <__bad_interrupt>
      8a:	00 00       	nop
      8c:	3f c0       	rjmp	.+126    	; 0x10c <__bad_interrupt>
      8e:	00 00       	nop
      90:	83 c2       	rjmp	.+1286   	; 0x598 <__vector_36>
      92:	00 00       	nop
      94:	3b c0       	rjmp	.+118    	; 0x10c <__bad_interrupt>
      96:	00 00       	nop
      98:	39 c0       	rjmp	.+114    	; 0x10c <__bad_interrupt>
      9a:	00 00       	nop
      9c:	37 c0       	rjmp	.+110    	; 0x10c <__bad_interrupt>
      9e:	00 00       	nop
      a0:	35 c0       	rjmp	.+106    	; 0x10c <__bad_interrupt>
      a2:	00 00       	nop
      a4:	33 c0       	rjmp	.+102    	; 0x10c <__bad_interrupt>
      a6:	00 00       	nop
      a8:	31 c0       	rjmp	.+98     	; 0x10c <__bad_interrupt>
      aa:	00 00       	nop
      ac:	2f c0       	rjmp	.+94     	; 0x10c <__bad_interrupt>
      ae:	00 00       	nop
      b0:	2d c0       	rjmp	.+90     	; 0x10c <__bad_interrupt>
      b2:	00 00       	nop
      b4:	04 c4       	rjmp	.+2056   	; 0x8be <__vector_45>
      b6:	00 00       	nop
      b8:	29 c0       	rjmp	.+82     	; 0x10c <__bad_interrupt>
      ba:	00 00       	nop
      bc:	27 c0       	rjmp	.+78     	; 0x10c <__bad_interrupt>
      be:	00 00       	nop
      c0:	25 c0       	rjmp	.+74     	; 0x10c <__bad_interrupt>
      c2:	00 00       	nop
      c4:	23 c0       	rjmp	.+70     	; 0x10c <__bad_interrupt>
      c6:	00 00       	nop
      c8:	42 c4       	rjmp	.+2180   	; 0x94e <__vector_50>
	...

000000cc <__ctors_end>:
      cc:	11 24       	eor	r1, r1
      ce:	1f be       	out	0x3f, r1	; 63
      d0:	cf ef       	ldi	r28, 0xFF	; 255
      d2:	d1 e2       	ldi	r29, 0x21	; 33
      d4:	de bf       	out	0x3e, r29	; 62
      d6:	cd bf       	out	0x3d, r28	; 61
      d8:	00 e0       	ldi	r16, 0x00	; 0
      da:	0c bf       	out	0x3c, r16	; 60

000000dc <__do_copy_data>:
      dc:	12 e0       	ldi	r17, 0x02	; 2
      de:	a0 e0       	ldi	r26, 0x00	; 0
      e0:	b2 e0       	ldi	r27, 0x02	; 2
      e2:	ee ed       	ldi	r30, 0xDE	; 222
      e4:	f2 e1       	ldi	r31, 0x12	; 18
      e6:	00 e0       	ldi	r16, 0x00	; 0
      e8:	0b bf       	out	0x3b, r16	; 59
      ea:	02 c0       	rjmp	.+4      	; 0xf0 <__do_copy_data+0x14>
      ec:	07 90       	elpm	r0, Z+
      ee:	0d 92       	st	X+, r0
      f0:	a6 30       	cpi	r26, 0x06	; 6
      f2:	b1 07       	cpc	r27, r17
      f4:	d9 f7       	brne	.-10     	; 0xec <__do_copy_data+0x10>

000000f6 <__do_clear_bss>:
      f6:	22 e0       	ldi	r18, 0x02	; 2
      f8:	a6 e0       	ldi	r26, 0x06	; 6
      fa:	b2 e0       	ldi	r27, 0x02	; 2
      fc:	01 c0       	rjmp	.+2      	; 0x100 <.do_clear_bss_start>

000000fe <.do_clear_bss_loop>:
      fe:	1d 92       	st	X+, r1

00000100 <.do_clear_bss_start>:
     100:	ae 33       	cpi	r26, 0x3E	; 62
     102:	b2 07       	cpc	r27, r18
     104:	e1 f7       	brne	.-8      	; 0xfe <.do_clear_bss_loop>
     106:	59 d6       	rcall	.+3250   	; 0xdba <main>
     108:	0c 94 6d 09 	jmp	0x12da	; 0x12da <_exit>

0000010c <__bad_interrupt>:
     10c:	79 cf       	rjmp	.-270    	; 0x0 <__vectors>

0000010e <sendToESB>:
 *
 *  @param char The byte that is going to be sent to the ESB
 *  @return char The received byte from the ESB
 */
void sendToESB(uint8_t len)
{
     10e:	cf 93       	push	r28
     110:	df 93       	push	r29
     112:	1f 92       	push	r1
     114:	1f 92       	push	r1
     116:	cd b7       	in	r28, 0x3d	; 61
     118:	de b7       	in	r29, 0x3e	; 62
     11a:	8a 83       	std	Y+2, r24	; 0x02
	// this will send the number of character in ESBmessage up to len
	cli();
     11c:	f8 94       	cli
	for(uint8_t i = 0; i < len; i++)
     11e:	19 82       	std	Y+1, r1	; 0x01
     120:	19 c0       	rjmp	.+50     	; 0x154 <sendToESB+0x46>
	{
		while ( !( UCSR1A & (1<<UDRE1)) );
     122:	00 00       	nop
     124:	88 ec       	ldi	r24, 0xC8	; 200
     126:	90 e0       	ldi	r25, 0x00	; 0
     128:	fc 01       	movw	r30, r24
     12a:	80 81       	ld	r24, Z
     12c:	88 2f       	mov	r24, r24
     12e:	90 e0       	ldi	r25, 0x00	; 0
     130:	80 72       	andi	r24, 0x20	; 32
     132:	99 27       	eor	r25, r25
     134:	89 2b       	or	r24, r25
     136:	b1 f3       	breq	.-20     	; 0x124 <sendToESB+0x16>
		/* Put data into buffer, sends the data */
		UDR1 = ESBtransmit[i];
     138:	8e ec       	ldi	r24, 0xCE	; 206
     13a:	90 e0       	ldi	r25, 0x00	; 0
     13c:	29 81       	ldd	r18, Y+1	; 0x01
     13e:	22 2f       	mov	r18, r18
     140:	30 e0       	ldi	r19, 0x00	; 0
     142:	2b 5e       	subi	r18, 0xEB	; 235
     144:	3d 4f       	sbci	r19, 0xFD	; 253
     146:	f9 01       	movw	r30, r18
     148:	20 81       	ld	r18, Z
     14a:	fc 01       	movw	r30, r24
     14c:	20 83       	st	Z, r18
 */
void sendToESB(uint8_t len)
{
	// this will send the number of character in ESBmessage up to len
	cli();
	for(uint8_t i = 0; i < len; i++)
     14e:	89 81       	ldd	r24, Y+1	; 0x01
     150:	8f 5f       	subi	r24, 0xFF	; 255
     152:	89 83       	std	Y+1, r24	; 0x01
     154:	99 81       	ldd	r25, Y+1	; 0x01
     156:	8a 81       	ldd	r24, Y+2	; 0x02
     158:	98 17       	cp	r25, r24
     15a:	18 f3       	brcs	.-58     	; 0x122 <sendToESB+0x14>
	{
		while ( !( UCSR1A & (1<<UDRE1)) );
		/* Put data into buffer, sends the data */
		UDR1 = ESBtransmit[i];
	}
	sei();
     15c:	78 94       	sei
}
     15e:	00 00       	nop
     160:	0f 90       	pop	r0
     162:	0f 90       	pop	r0
     164:	df 91       	pop	r29
     166:	cf 91       	pop	r28
     168:	08 95       	ret

0000016a <ESB_Connect>:
 *
 *  @param void
 *  @return void
 */
void ESB_Connect(void)
{
     16a:	cf 93       	push	r28
     16c:	df 93       	push	r29
     16e:	cd b7       	in	r28, 0x3d	; 61
     170:	de b7       	in	r29, 0x3e	; 62

	ESBtransmit[0] = 'A';
     172:	81 e4       	ldi	r24, 0x41	; 65
     174:	80 93 15 02 	sts	0x0215, r24	; 0x800215 <ESBtransmit>
	ESBtransmit[1] = 'C';
     178:	83 e4       	ldi	r24, 0x43	; 67
     17a:	80 93 16 02 	sts	0x0216, r24	; 0x800216 <ESBtransmit+0x1>
	ESBtransmit[2] = 'E';
     17e:	85 e4       	ldi	r24, 0x45	; 69
     180:	80 93 17 02 	sts	0x0217, r24	; 0x800217 <ESBtransmit+0x2>
	ESBtransmit[3] = 'S';
     184:	83 e5       	ldi	r24, 0x53	; 83
     186:	80 93 18 02 	sts	0x0218, r24	; 0x800218 <ESBtransmit+0x3>
	sendToESB(4);	
     18a:	84 e0       	ldi	r24, 0x04	; 4
     18c:	c0 df       	rcall	.-128    	; 0x10e <sendToESB>
}
     18e:	00 00       	nop
     190:	df 91       	pop	r29
     192:	cf 91       	pop	r28
     194:	08 95       	ret

00000196 <GUI_Connect>:
 *
 *  @param void
 *  @return void
 */
void GUI_Connect(void)
{
     196:	cf 93       	push	r28
     198:	df 93       	push	r29
     19a:	00 d0       	rcall	.+0      	; 0x19c <GUI_Connect+0x6>
     19c:	00 d0       	rcall	.+0      	; 0x19e <GUI_Connect+0x8>
     19e:	cd b7       	in	r28, 0x3d	; 61
     1a0:	de b7       	in	r29, 0x3e	; 62
	char message[] = "DALE";
     1a2:	85 e0       	ldi	r24, 0x05	; 5
     1a4:	e0 e0       	ldi	r30, 0x00	; 0
     1a6:	f2 e0       	ldi	r31, 0x02	; 2
     1a8:	de 01       	movw	r26, r28
     1aa:	12 96       	adiw	r26, 0x02	; 2
     1ac:	01 90       	ld	r0, Z+
     1ae:	0d 92       	st	X+, r0
     1b0:	8a 95       	dec	r24
     1b2:	e1 f7       	brne	.-8      	; 0x1ac <GUI_Connect+0x16>
	for (uint8_t i = 0; i < 4; i++){                // This will also send the terminator
     1b4:	19 82       	std	Y+1, r1	; 0x01
     1b6:	1c c0       	rjmp	.+56     	; 0x1f0 <GUI_Connect+0x5a>
		/* Wait for empty transmit buffer */
		while ( !( UCSR0A & (1<<UDRE0)) );
     1b8:	00 00       	nop
     1ba:	80 ec       	ldi	r24, 0xC0	; 192
     1bc:	90 e0       	ldi	r25, 0x00	; 0
     1be:	fc 01       	movw	r30, r24
     1c0:	80 81       	ld	r24, Z
     1c2:	88 2f       	mov	r24, r24
     1c4:	90 e0       	ldi	r25, 0x00	; 0
     1c6:	80 72       	andi	r24, 0x20	; 32
     1c8:	99 27       	eor	r25, r25
     1ca:	89 2b       	or	r24, r25
     1cc:	b1 f3       	breq	.-20     	; 0x1ba <GUI_Connect+0x24>
		/* Put data into buffer, sends the data */
		UDR0 = message[i];
     1ce:	86 ec       	ldi	r24, 0xC6	; 198
     1d0:	90 e0       	ldi	r25, 0x00	; 0
     1d2:	29 81       	ldd	r18, Y+1	; 0x01
     1d4:	22 2f       	mov	r18, r18
     1d6:	30 e0       	ldi	r19, 0x00	; 0
     1d8:	ae 01       	movw	r20, r28
     1da:	4e 5f       	subi	r20, 0xFE	; 254
     1dc:	5f 4f       	sbci	r21, 0xFF	; 255
     1de:	24 0f       	add	r18, r20
     1e0:	35 1f       	adc	r19, r21
     1e2:	f9 01       	movw	r30, r18
     1e4:	20 81       	ld	r18, Z
     1e6:	fc 01       	movw	r30, r24
     1e8:	20 83       	st	Z, r18
 *  @return void
 */
void GUI_Connect(void)
{
	char message[] = "DALE";
	for (uint8_t i = 0; i < 4; i++){                // This will also send the terminator
     1ea:	89 81       	ldd	r24, Y+1	; 0x01
     1ec:	8f 5f       	subi	r24, 0xFF	; 255
     1ee:	89 83       	std	Y+1, r24	; 0x01
     1f0:	89 81       	ldd	r24, Y+1	; 0x01
     1f2:	84 30       	cpi	r24, 0x04	; 4
     1f4:	08 f3       	brcs	.-62     	; 0x1b8 <GUI_Connect+0x22>
		/* Wait for empty transmit buffer */
		while ( !( UCSR0A & (1<<UDRE0)) );
		/* Put data into buffer, sends the data */
		UDR0 = message[i];
	}
	connected = 1;
     1f6:	81 e0       	ldi	r24, 0x01	; 1
     1f8:	80 93 26 02 	sts	0x0226, r24	; 0x800226 <connected>
}
     1fc:	00 00       	nop
     1fe:	26 96       	adiw	r28, 0x06	; 6
     200:	0f b6       	in	r0, 0x3f	; 63
     202:	f8 94       	cli
     204:	de bf       	out	0x3e, r29	; 62
     206:	0f be       	out	0x3f, r0	; 63
     208:	cd bf       	out	0x3d, r28	; 61
     20a:	df 91       	pop	r29
     20c:	cf 91       	pop	r28
     20e:	08 95       	ret

00000210 <sendToLaptop>:
 *
 *  @param void
 *  @return void
 */
void sendToLaptop(void)
{
     210:	cf 93       	push	r28
     212:	df 93       	push	r29
     214:	cd b7       	in	r28, 0x3d	; 61
     216:	de b7       	in	r29, 0x3e	; 62
     218:	66 97       	sbiw	r28, 0x16	; 22
     21a:	0f b6       	in	r0, 0x3f	; 63
     21c:	f8 94       	cli
     21e:	de bf       	out	0x3e, r29	; 62
     220:	0f be       	out	0x3f, r0	; 63
     222:	cd bf       	out	0x3d, r28	; 61
	dummyData();    // remove this later
     224:	6c d4       	rcall	.+2264   	; 0xafe <dummyData>
	// This function will be responsible for packaging and sending the desired data to the Windows GUI
	char message[21];              // this is the base length of the message with room for the parity bytes
	// now fill the message
	if (overrideMode == 1){
     226:	80 91 0c 02 	lds	r24, 0x020C	; 0x80020c <overrideMode>
     22a:	81 30       	cpi	r24, 0x01	; 1
     22c:	29 f4       	brne	.+10     	; 0x238 <sendToLaptop+0x28>
		message[0] = 'b';          // This means that the ESB is not connected or it has lost connection
     22e:	82 e6       	ldi	r24, 0x62	; 98
     230:	8a 83       	std	Y+2, r24	; 0x02
		overrideMode = 0;
     232:	10 92 0c 02 	sts	0x020C, r1	; 0x80020c <overrideMode>
     236:	50 c0       	rjmp	.+160    	; 0x2d8 <sendToLaptop+0xc8>
	}
	else if (overrideMode == 3){
     238:	80 91 0c 02 	lds	r24, 0x020C	; 0x80020c <overrideMode>
     23c:	83 30       	cpi	r24, 0x03	; 3
     23e:	29 f4       	brne	.+10     	; 0x24a <sendToLaptop+0x3a>
		message[0] = 'R';          // This means that RPM limit has been reached and the engine is shutting down
     240:	82 e5       	ldi	r24, 0x52	; 82
     242:	8a 83       	std	Y+2, r24	; 0x02
		overrideMode = 0;
     244:	10 92 0c 02 	sts	0x020C, r1	; 0x80020c <overrideMode>
     248:	47 c0       	rjmp	.+142    	; 0x2d8 <sendToLaptop+0xc8>
	}
	else if (overrideMode == 4){
     24a:	80 91 0c 02 	lds	r24, 0x020C	; 0x80020c <overrideMode>
     24e:	84 30       	cpi	r24, 0x04	; 4
     250:	29 f4       	brne	.+10     	; 0x25c <sendToLaptop+0x4c>
		message[0] = 'T';          // This means the Temperature limit has been reached and the engine is shutting down
     252:	84 e5       	ldi	r24, 0x54	; 84
     254:	8a 83       	std	Y+2, r24	; 0x02
		overrideMode = 0;
     256:	10 92 0c 02 	sts	0x020C, r1	; 0x80020c <overrideMode>
     25a:	3e c0       	rjmp	.+124    	; 0x2d8 <sendToLaptop+0xc8>
	}
	else if (opMode == 0){
     25c:	80 91 0b 02 	lds	r24, 0x020B	; 0x80020b <opMode>
     260:	88 23       	and	r24, r24
     262:	19 f4       	brne	.+6      	; 0x26a <sendToLaptop+0x5a>
		message[0] = 'S';          // This means that an engine shutdown is being carried out
     264:	83 e5       	ldi	r24, 0x53	; 83
     266:	8a 83       	std	Y+2, r24	; 0x02
     268:	37 c0       	rjmp	.+110    	; 0x2d8 <sendToLaptop+0xc8>
	}
	else if(opMode == 1){
     26a:	80 91 0b 02 	lds	r24, 0x020B	; 0x80020b <opMode>
     26e:	81 30       	cpi	r24, 0x01	; 1
     270:	19 f4       	brne	.+6      	; 0x278 <sendToLaptop+0x68>
		message[0] = 'r';          // This means that an engine startup is in progress
     272:	82 e7       	ldi	r24, 0x72	; 114
     274:	8a 83       	std	Y+2, r24	; 0x02
     276:	30 c0       	rjmp	.+96     	; 0x2d8 <sendToLaptop+0xc8>
	}
	else if(opMode == 2){
     278:	80 91 0b 02 	lds	r24, 0x020B	; 0x80020b <opMode>
     27c:	82 30       	cpi	r24, 0x02	; 2
     27e:	19 f4       	brne	.+6      	; 0x286 <sendToLaptop+0x76>
		message[0] = 't';          // This means that a throttle adjustment has been requested and is being carried out
     280:	84 e7       	ldi	r24, 0x74	; 116
     282:	8a 83       	std	Y+2, r24	; 0x02
     284:	29 c0       	rjmp	.+82     	; 0x2d8 <sendToLaptop+0xc8>
	}
	else if(opMode == 4){
     286:	80 91 0b 02 	lds	r24, 0x020B	; 0x80020b <opMode>
     28a:	84 30       	cpi	r24, 0x04	; 4
     28c:	19 f4       	brne	.+6      	; 0x294 <sendToLaptop+0x84>
		message[0] = 'C';          // This means that the engine is in the cooling mode
     28e:	83 e4       	ldi	r24, 0x43	; 67
     290:	8a 83       	std	Y+2, r24	; 0x02
     292:	22 c0       	rjmp	.+68     	; 0x2d8 <sendToLaptop+0xc8>
	}
	else if(opMode == 5){
     294:	80 91 0b 02 	lds	r24, 0x020B	; 0x80020b <opMode>
     298:	85 30       	cpi	r24, 0x05	; 5
     29a:	19 f4       	brne	.+6      	; 0x2a2 <sendToLaptop+0x92>
		message[0] = 'n';          // The engine is not doing anything
     29c:	8e e6       	ldi	r24, 0x6E	; 110
     29e:	8a 83       	std	Y+2, r24	; 0x02
     2a0:	1b c0       	rjmp	.+54     	; 0x2d8 <sendToLaptop+0xc8>
	}
	else if (opMode == 6){
     2a2:	80 91 0b 02 	lds	r24, 0x020B	; 0x80020b <opMode>
     2a6:	86 30       	cpi	r24, 0x06	; 6
     2a8:	19 f4       	brne	.+6      	; 0x2b0 <sendToLaptop+0xa0>
		message[0] = 'g';          // Special shutdown, the EGT is not working properly and there cannot be a normal cooling mode
     2aa:	87 e6       	ldi	r24, 0x67	; 103
     2ac:	8a 83       	std	Y+2, r24	; 0x02
     2ae:	14 c0       	rjmp	.+40     	; 0x2d8 <sendToLaptop+0xc8>
	}
	else if (opMode == 7){
     2b0:	80 91 0b 02 	lds	r24, 0x020B	; 0x80020b <opMode>
     2b4:	87 30       	cpi	r24, 0x07	; 7
     2b6:	19 f4       	brne	.+6      	; 0x2be <sendToLaptop+0xae>
		message[0] = 'N';          // This means that the engine has reached the desired throttle, within the error tolerance
     2b8:	8e e4       	ldi	r24, 0x4E	; 78
     2ba:	8a 83       	std	Y+2, r24	; 0x02
     2bc:	0d c0       	rjmp	.+26     	; 0x2d8 <sendToLaptop+0xc8>
	}
	else if (opMode == 9){         // This means that fuel is not flowing when it should be flowing
     2be:	80 91 0b 02 	lds	r24, 0x020B	; 0x80020b <opMode>
     2c2:	89 30       	cpi	r24, 0x09	; 9
     2c4:	19 f4       	brne	.+6      	; 0x2cc <sendToLaptop+0xbc>
		message[0] = 'P';	
     2c6:	80 e5       	ldi	r24, 0x50	; 80
     2c8:	8a 83       	std	Y+2, r24	; 0x02
     2ca:	06 c0       	rjmp	.+12     	; 0x2d8 <sendToLaptop+0xc8>
	}
	else if (opMode == 10){
     2cc:	80 91 0b 02 	lds	r24, 0x020B	; 0x80020b <opMode>
     2d0:	8a 30       	cpi	r24, 0x0A	; 10
     2d2:	11 f4       	brne	.+4      	; 0x2d8 <sendToLaptop+0xc8>
		message[0] = 'I';          // This means that the engine has reached idle
     2d4:	89 e4       	ldi	r24, 0x49	; 73
     2d6:	8a 83       	std	Y+2, r24	; 0x02
	}
		
	memcpy(message+1,&massFlow,sizeof(float));          // This should fill 1->4 with the float value
     2d8:	9e 01       	movw	r18, r28
     2da:	2e 5f       	subi	r18, 0xFE	; 254
     2dc:	3f 4f       	sbci	r19, 0xFF	; 255
     2de:	2f 5f       	subi	r18, 0xFF	; 255
     2e0:	3f 4f       	sbci	r19, 0xFF	; 255
     2e2:	80 91 11 02 	lds	r24, 0x0211	; 0x800211 <massFlow>
     2e6:	90 91 12 02 	lds	r25, 0x0212	; 0x800212 <massFlow+0x1>
     2ea:	a0 91 13 02 	lds	r26, 0x0213	; 0x800213 <massFlow+0x2>
     2ee:	b0 91 14 02 	lds	r27, 0x0214	; 0x800214 <massFlow+0x3>
     2f2:	f9 01       	movw	r30, r18
     2f4:	80 83       	st	Z, r24
     2f6:	91 83       	std	Z+1, r25	; 0x01
     2f8:	a2 83       	std	Z+2, r26	; 0x02
     2fa:	b3 83       	std	Z+3, r27	; 0x03
	memcpy(message+5,&Hall_effect,sizeof(uint16_t));    // This should fill 5->6 with the Hall effect sensor value
     2fc:	ce 01       	movw	r24, r28
     2fe:	02 96       	adiw	r24, 0x02	; 2
     300:	05 96       	adiw	r24, 0x05	; 5
     302:	20 91 0e 02 	lds	r18, 0x020E	; 0x80020e <Hall_effect>
     306:	30 91 0f 02 	lds	r19, 0x020F	; 0x80020f <Hall_effect+0x1>
     30a:	fc 01       	movw	r30, r24
     30c:	31 83       	std	Z+1, r19	; 0x01
     30e:	20 83       	st	Z, r18
	memcpy(message+7,&EGT,sizeof(uint16_t));            // This should fill 7->8 with the EGT value 
     310:	ce 01       	movw	r24, r28
     312:	02 96       	adiw	r24, 0x02	; 2
     314:	07 96       	adiw	r24, 0x07	; 7
     316:	20 91 23 02 	lds	r18, 0x0223	; 0x800223 <EGT>
     31a:	30 91 24 02 	lds	r19, 0x0224	; 0x800224 <EGT+0x1>
     31e:	fc 01       	movw	r30, r24
     320:	31 83       	std	Z+1, r19	; 0x01
     322:	20 83       	st	Z, r18
	memcpy(message+9,&voltageFinal,sizeof(float));      // this should fill 9->12 with the value of the battery voltage
     324:	9e 01       	movw	r18, r28
     326:	2e 5f       	subi	r18, 0xFE	; 254
     328:	3f 4f       	sbci	r19, 0xFF	; 255
     32a:	27 5f       	subi	r18, 0xF7	; 247
     32c:	3f 4f       	sbci	r19, 0xFF	; 255
     32e:	80 91 1f 02 	lds	r24, 0x021F	; 0x80021f <voltageFinal>
     332:	90 91 20 02 	lds	r25, 0x0220	; 0x800220 <voltageFinal+0x1>
     336:	a0 91 21 02 	lds	r26, 0x0221	; 0x800221 <voltageFinal+0x2>
     33a:	b0 91 22 02 	lds	r27, 0x0222	; 0x800222 <voltageFinal+0x3>
     33e:	f9 01       	movw	r30, r18
     340:	80 83       	st	Z, r24
     342:	91 83       	std	Z+1, r25	; 0x01
     344:	a2 83       	std	Z+2, r26	; 0x02
     346:	b3 83       	std	Z+3, r27	; 0x03
	memcpy(message+13,&glow_plug,sizeof(char));         // This should fill 13 with the glow plug on/off
     348:	ce 01       	movw	r24, r28
     34a:	02 96       	adiw	r24, 0x02	; 2
     34c:	0d 96       	adiw	r24, 0x0d	; 13
     34e:	20 91 10 02 	lds	r18, 0x0210	; 0x800210 <glow_plug>
     352:	fc 01       	movw	r30, r24
     354:	20 83       	st	Z, r18
	memcpy(message+14,&ECU_temp,sizeof(float));         // This should fill 14->17 with the temperature of the ECU
     356:	9e 01       	movw	r18, r28
     358:	2e 5f       	subi	r18, 0xFE	; 254
     35a:	3f 4f       	sbci	r19, 0xFF	; 255
     35c:	22 5f       	subi	r18, 0xF2	; 242
     35e:	3f 4f       	sbci	r19, 0xFF	; 255
     360:	80 91 38 02 	lds	r24, 0x0238	; 0x800238 <ECU_temp>
     364:	90 91 39 02 	lds	r25, 0x0239	; 0x800239 <ECU_temp+0x1>
     368:	a0 91 3a 02 	lds	r26, 0x023A	; 0x80023a <ECU_temp+0x2>
     36c:	b0 91 3b 02 	lds	r27, 0x023B	; 0x80023b <ECU_temp+0x3>
     370:	f9 01       	movw	r30, r18
     372:	80 83       	st	Z, r24
     374:	91 83       	std	Z+1, r25	; 0x01
     376:	a2 83       	std	Z+2, r26	; 0x02
     378:	b3 83       	std	Z+3, r27	; 0x03
	
	// now that the message is made, I need to calculate and populate the parity bytes
	calculateParity(&message[0]);
     37a:	ce 01       	movw	r24, r28
     37c:	02 96       	adiw	r24, 0x02	; 2
     37e:	29 d3       	rcall	.+1618   	; 0x9d2 <calculateParity>
	
	// At this point it is advantageous to turn off global interrupts so that this process is not interrupted
	cli();
     380:	f8 94       	cli
	for (uint8_t i = 0; i < 21; i++){
     382:	19 82       	std	Y+1, r1	; 0x01
     384:	1c c0       	rjmp	.+56     	; 0x3be <sendToLaptop+0x1ae>
		/* Wait for empty transmit buffer */
		while ( !( UCSR0A & (1<<UDRE0)) );
     386:	00 00       	nop
     388:	80 ec       	ldi	r24, 0xC0	; 192
     38a:	90 e0       	ldi	r25, 0x00	; 0
     38c:	fc 01       	movw	r30, r24
     38e:	80 81       	ld	r24, Z
     390:	88 2f       	mov	r24, r24
     392:	90 e0       	ldi	r25, 0x00	; 0
     394:	80 72       	andi	r24, 0x20	; 32
     396:	99 27       	eor	r25, r25
     398:	89 2b       	or	r24, r25
     39a:	b1 f3       	breq	.-20     	; 0x388 <sendToLaptop+0x178>
		/* Put data into buffer, sends the data */
		UDR0 = message[i];
     39c:	86 ec       	ldi	r24, 0xC6	; 198
     39e:	90 e0       	ldi	r25, 0x00	; 0
     3a0:	29 81       	ldd	r18, Y+1	; 0x01
     3a2:	22 2f       	mov	r18, r18
     3a4:	30 e0       	ldi	r19, 0x00	; 0
     3a6:	ae 01       	movw	r20, r28
     3a8:	4e 5f       	subi	r20, 0xFE	; 254
     3aa:	5f 4f       	sbci	r21, 0xFF	; 255
     3ac:	24 0f       	add	r18, r20
     3ae:	35 1f       	adc	r19, r21
     3b0:	f9 01       	movw	r30, r18
     3b2:	20 81       	ld	r18, Z
     3b4:	fc 01       	movw	r30, r24
     3b6:	20 83       	st	Z, r18
	// now that the message is made, I need to calculate and populate the parity bytes
	calculateParity(&message[0]);
	
	// At this point it is advantageous to turn off global interrupts so that this process is not interrupted
	cli();
	for (uint8_t i = 0; i < 21; i++){
     3b8:	89 81       	ldd	r24, Y+1	; 0x01
     3ba:	8f 5f       	subi	r24, 0xFF	; 255
     3bc:	89 83       	std	Y+1, r24	; 0x01
     3be:	89 81       	ldd	r24, Y+1	; 0x01
     3c0:	85 31       	cpi	r24, 0x15	; 21
     3c2:	08 f3       	brcs	.-62     	; 0x386 <sendToLaptop+0x176>
		/* Wait for empty transmit buffer */
		while ( !( UCSR0A & (1<<UDRE0)) );
		/* Put data into buffer, sends the data */
		UDR0 = message[i];
	}
	sei();   // Now need to turn global interrupts back on
     3c4:	78 94       	sei
	// Now start the timer
	//TCCR4B = (1 << CS41) | (1 << CS40);      // start timer 5 with prescalar of 64

}
     3c6:	00 00       	nop
     3c8:	66 96       	adiw	r28, 0x16	; 22
     3ca:	0f b6       	in	r0, 0x3f	; 63
     3cc:	f8 94       	cli
     3ce:	de bf       	out	0x3e, r29	; 62
     3d0:	0f be       	out	0x3f, r0	; 63
     3d2:	cd bf       	out	0x3d, r28	; 61
     3d4:	df 91       	pop	r29
     3d6:	cf 91       	pop	r28
     3d8:	08 95       	ret

000003da <__vector_25>:
 *
 *  @param void
 *  @return void
 */
ISR(USART0_RX_vect)
{
     3da:	1f 92       	push	r1
     3dc:	0f 92       	push	r0
     3de:	00 90 5f 00 	lds	r0, 0x005F	; 0x80005f <__TEXT_REGION_LENGTH__+0x70005f>
     3e2:	0f 92       	push	r0
     3e4:	11 24       	eor	r1, r1
     3e6:	00 90 5b 00 	lds	r0, 0x005B	; 0x80005b <__TEXT_REGION_LENGTH__+0x70005b>
     3ea:	0f 92       	push	r0
     3ec:	2f 93       	push	r18
     3ee:	3f 93       	push	r19
     3f0:	4f 93       	push	r20
     3f2:	5f 93       	push	r21
     3f4:	6f 93       	push	r22
     3f6:	7f 93       	push	r23
     3f8:	8f 93       	push	r24
     3fa:	9f 93       	push	r25
     3fc:	af 93       	push	r26
     3fe:	bf 93       	push	r27
     400:	ef 93       	push	r30
     402:	ff 93       	push	r31
     404:	cf 93       	push	r28
     406:	df 93       	push	r29
     408:	1f 92       	push	r1
     40a:	cd b7       	in	r28, 0x3d	; 61
     40c:	de b7       	in	r29, 0x3e	; 62
	// This will automatically clear the interrupt flag
	char data = UDR0;
     40e:	86 ec       	ldi	r24, 0xC6	; 198
     410:	90 e0       	ldi	r25, 0x00	; 0
     412:	fc 01       	movw	r30, r24
     414:	80 81       	ld	r24, Z
     416:	89 83       	std	Y+1, r24	; 0x01
	hasInterrupted = 1;                    // Set this flag so that the ESBCommand function knows if it has been interrupted or not
     418:	81 e0       	ldi	r24, 0x01	; 1
     41a:	80 93 0a 02 	sts	0x020A, r24	; 0x80020a <hasInterrupted>
	if (newCommand){
     41e:	80 91 1e 02 	lds	r24, 0x021E	; 0x80021e <newCommand>
     422:	88 23       	and	r24, r24
     424:	09 f4       	brne	.+2      	; 0x428 <__LOCK_REGION_LENGTH__+0x28>
     426:	75 c0       	rjmp	.+234    	; 0x512 <__LOCK_REGION_LENGTH__+0x112>
		newCommand = 0;                    // reset this so that the commandMode cannot change until the command string is done
     428:	10 92 1e 02 	sts	0x021E, r1	; 0x80021e <newCommand>
		if (data == 'A'){
     42c:	89 81       	ldd	r24, Y+1	; 0x01
     42e:	81 34       	cpi	r24, 0x41	; 65
     430:	39 f4       	brne	.+14     	; 0x440 <__LOCK_REGION_LENGTH__+0x40>
			connect_count = 1;
     432:	81 e0       	ldi	r24, 0x01	; 1
     434:	80 93 37 02 	sts	0x0237, r24	; 0x800237 <connect_count>
			newCommand = 1;
     438:	81 e0       	ldi	r24, 0x01	; 1
     43a:	80 93 1e 02 	sts	0x021E, r24	; 0x80021e <newCommand>
				break;
		}
		newCommand = 1;                    // reset this so that a new command will be accepted in the way that is expected
		
	}
}
     43e:	93 c0       	rjmp	.+294    	; 0x566 <__LOCK_REGION_LENGTH__+0x166>
		newCommand = 0;                    // reset this so that the commandMode cannot change until the command string is done
		if (data == 'A'){
			connect_count = 1;
			newCommand = 1;
		}
		else if (data == 'C' && connect_count == 1){
     440:	89 81       	ldd	r24, Y+1	; 0x01
     442:	83 34       	cpi	r24, 0x43	; 67
     444:	69 f4       	brne	.+26     	; 0x460 <__LOCK_REGION_LENGTH__+0x60>
     446:	80 91 37 02 	lds	r24, 0x0237	; 0x800237 <connect_count>
     44a:	81 30       	cpi	r24, 0x01	; 1
     44c:	49 f4       	brne	.+18     	; 0x460 <__LOCK_REGION_LENGTH__+0x60>
			connect_count++;
     44e:	80 91 37 02 	lds	r24, 0x0237	; 0x800237 <connect_count>
     452:	8f 5f       	subi	r24, 0xFF	; 255
     454:	80 93 37 02 	sts	0x0237, r24	; 0x800237 <connect_count>
			newCommand = 1;
     458:	81 e0       	ldi	r24, 0x01	; 1
     45a:	80 93 1e 02 	sts	0x021E, r24	; 0x80021e <newCommand>
     45e:	83 c0       	rjmp	.+262    	; 0x566 <__LOCK_REGION_LENGTH__+0x166>
		}
		else if (data == 'E' && connect_count == 2){
     460:	89 81       	ldd	r24, Y+1	; 0x01
     462:	85 34       	cpi	r24, 0x45	; 69
     464:	69 f4       	brne	.+26     	; 0x480 <__LOCK_REGION_LENGTH__+0x80>
     466:	80 91 37 02 	lds	r24, 0x0237	; 0x800237 <connect_count>
     46a:	82 30       	cpi	r24, 0x02	; 2
     46c:	49 f4       	brne	.+18     	; 0x480 <__LOCK_REGION_LENGTH__+0x80>
			connect_count++;
     46e:	80 91 37 02 	lds	r24, 0x0237	; 0x800237 <connect_count>
     472:	8f 5f       	subi	r24, 0xFF	; 255
     474:	80 93 37 02 	sts	0x0237, r24	; 0x800237 <connect_count>
			newCommand = 1;
     478:	81 e0       	ldi	r24, 0x01	; 1
     47a:	80 93 1e 02 	sts	0x021E, r24	; 0x80021e <newCommand>
     47e:	73 c0       	rjmp	.+230    	; 0x566 <__LOCK_REGION_LENGTH__+0x166>
		}
		else if (data == 'S' && connect_count == 3){
     480:	89 81       	ldd	r24, Y+1	; 0x01
     482:	83 35       	cpi	r24, 0x53	; 83
     484:	71 f4       	brne	.+28     	; 0x4a2 <__LOCK_REGION_LENGTH__+0xa2>
     486:	80 91 37 02 	lds	r24, 0x0237	; 0x800237 <connect_count>
     48a:	83 30       	cpi	r24, 0x03	; 3
     48c:	51 f4       	brne	.+20     	; 0x4a2 <__LOCK_REGION_LENGTH__+0xa2>
			connect_count++;
     48e:	80 91 37 02 	lds	r24, 0x0237	; 0x800237 <connect_count>
     492:	8f 5f       	subi	r24, 0xFF	; 255
     494:	80 93 37 02 	sts	0x0237, r24	; 0x800237 <connect_count>
			GUI_Connect();
     498:	7e de       	rcall	.-772    	; 0x196 <GUI_Connect>
			newCommand = 1;
     49a:	81 e0       	ldi	r24, 0x01	; 1
     49c:	80 93 1e 02 	sts	0x021E, r24	; 0x80021e <newCommand>
     4a0:	62 c0       	rjmp	.+196    	; 0x566 <__LOCK_REGION_LENGTH__+0x166>
		}
		else if (data == 'O'){
     4a2:	89 81       	ldd	r24, Y+1	; 0x01
     4a4:	8f 34       	cpi	r24, 0x4F	; 79
     4a6:	21 f4       	brne	.+8      	; 0x4b0 <__LOCK_REGION_LENGTH__+0xb0>
			commandMode = 1;               // This means the GUI is ordering the ECU to do something
     4a8:	81 e0       	ldi	r24, 0x01	; 1
     4aa:	80 93 0d 02 	sts	0x020D, r24	; 0x80020d <commandMode>
				break;
		}
		newCommand = 1;                    // reset this so that a new command will be accepted in the way that is expected
		
	}
}
     4ae:	5b c0       	rjmp	.+182    	; 0x566 <__LOCK_REGION_LENGTH__+0x166>
			newCommand = 1;
		}
		else if (data == 'O'){
			commandMode = 1;               // This means the GUI is ordering the ECU to do something
		}
		else if (data == 'T'){
     4b0:	89 81       	ldd	r24, Y+1	; 0x01
     4b2:	84 35       	cpi	r24, 0x54	; 84
     4b4:	21 f4       	brne	.+8      	; 0x4be <__LOCK_REGION_LENGTH__+0xbe>
			commandMode = 2;               // This means the GUI is requesting the ECU change the throttle to a specified value
     4b6:	82 e0       	ldi	r24, 0x02	; 2
     4b8:	80 93 0d 02 	sts	0x020D, r24	; 0x80020d <commandMode>
				break;
		}
		newCommand = 1;                    // reset this so that a new command will be accepted in the way that is expected
		
	}
}
     4bc:	54 c0       	rjmp	.+168    	; 0x566 <__LOCK_REGION_LENGTH__+0x166>
			commandMode = 1;               // This means the GUI is ordering the ECU to do something
		}
		else if (data == 'T'){
			commandMode = 2;               // This means the GUI is requesting the ECU change the throttle to a specified value
		}
		else if (data == 'K'){             // This means the GUI is sending a confirmation message for receiving the usual data transfer
     4be:	89 81       	ldd	r24, Y+1	; 0x01
     4c0:	8b 34       	cpi	r24, 0x4B	; 75
     4c2:	a9 f4       	brne	.+42     	; 0x4ee <__LOCK_REGION_LENGTH__+0xee>
			newCommand = 1;
     4c4:	81 e0       	ldi	r24, 0x01	; 1
     4c6:	80 93 1e 02 	sts	0x021E, r24	; 0x80021e <newCommand>
			// stop timer 4
			assign_bit(&TCCR4B, CS41, 0);
     4ca:	40 e0       	ldi	r20, 0x00	; 0
     4cc:	61 e0       	ldi	r22, 0x01	; 1
     4ce:	81 ea       	ldi	r24, 0xA1	; 161
     4d0:	90 e0       	ldi	r25, 0x00	; 0
     4d2:	b1 d1       	rcall	.+866    	; 0x836 <assign_bit>
			assign_bit(&TCCR4B, CS40, 0);            // turn off the timer
     4d4:	40 e0       	ldi	r20, 0x00	; 0
     4d6:	60 e0       	ldi	r22, 0x00	; 0
     4d8:	81 ea       	ldi	r24, 0xA1	; 161
     4da:	90 e0       	ldi	r25, 0x00	; 0
     4dc:	ac d1       	rcall	.+856    	; 0x836 <assign_bit>
			TCNT4 = 40536;                           // reset the timer register
     4de:	84 ea       	ldi	r24, 0xA4	; 164
     4e0:	90 e0       	ldi	r25, 0x00	; 0
     4e2:	28 e5       	ldi	r18, 0x58	; 88
     4e4:	3e e9       	ldi	r19, 0x9E	; 158
     4e6:	fc 01       	movw	r30, r24
     4e8:	31 83       	std	Z+1, r19	; 0x01
     4ea:	20 83       	st	Z, r18
				break;
		}
		newCommand = 1;                    // reset this so that a new command will be accepted in the way that is expected
		
	}
}
     4ec:	3c c0       	rjmp	.+120    	; 0x566 <__LOCK_REGION_LENGTH__+0x166>
			// stop timer 4
			assign_bit(&TCCR4B, CS41, 0);
			assign_bit(&TCCR4B, CS40, 0);            // turn off the timer
			TCNT4 = 40536;                           // reset the timer register
		}
		else if (data == 'R'){    // This means that the data needs to be sent to the GUI one more time
     4ee:	89 81       	ldd	r24, Y+1	; 0x01
     4f0:	82 35       	cpi	r24, 0x52	; 82
     4f2:	29 f4       	brne	.+10     	; 0x4fe <__LOCK_REGION_LENGTH__+0xfe>
			newCommand = 1;
     4f4:	81 e0       	ldi	r24, 0x01	; 1
     4f6:	80 93 1e 02 	sts	0x021E, r24	; 0x80021e <newCommand>
			sendToLaptop();   // this will just use what ever the values of the data currently are
     4fa:	8a de       	rcall	.-748    	; 0x210 <sendToLaptop>
				break;
		}
		newCommand = 1;                    // reset this so that a new command will be accepted in the way that is expected
		
	}
}
     4fc:	34 c0       	rjmp	.+104    	; 0x566 <__LOCK_REGION_LENGTH__+0x166>
		else if (data == 'R'){    // This means that the data needs to be sent to the GUI one more time
			newCommand = 1;
			sendToLaptop();   // this will just use what ever the values of the data currently are
		}
		else{
			commandMode = 0;               // This will handle all undefined behavior
     4fe:	10 92 0d 02 	sts	0x020D, r1	; 0x80020d <commandMode>
			if (!connected)
     502:	80 91 26 02 	lds	r24, 0x0226	; 0x800226 <connected>
     506:	88 23       	and	r24, r24
     508:	71 f5       	brne	.+92     	; 0x566 <__LOCK_REGION_LENGTH__+0x166>
				newCommand = 1;     // This was found to work during debugging as there is a 0 waiting in the buffer
     50a:	81 e0       	ldi	r24, 0x01	; 1
     50c:	80 93 1e 02 	sts	0x021E, r24	; 0x80021e <newCommand>
				break;
		}
		newCommand = 1;                    // reset this so that a new command will be accepted in the way that is expected
		
	}
}
     510:	2a c0       	rjmp	.+84     	; 0x566 <__LOCK_REGION_LENGTH__+0x166>
			commandMode = 0;               // This will handle all undefined behavior
			if (!connected)
				newCommand = 1;     // This was found to work during debugging as there is a 0 waiting in the buffer
		}
	}
	else if (connected) {
     512:	80 91 26 02 	lds	r24, 0x0226	; 0x800226 <connected>
     516:	88 23       	and	r24, r24
     518:	31 f1       	breq	.+76     	; 0x566 <__LOCK_REGION_LENGTH__+0x166>
		newCommand = 1;
     51a:	81 e0       	ldi	r24, 0x01	; 1
     51c:	80 93 1e 02 	sts	0x021E, r24	; 0x80021e <newCommand>
		switch (commandMode){
     520:	80 91 0d 02 	lds	r24, 0x020D	; 0x80020d <commandMode>
     524:	88 2f       	mov	r24, r24
     526:	90 e0       	ldi	r25, 0x00	; 0
     528:	81 30       	cpi	r24, 0x01	; 1
     52a:	91 05       	cpc	r25, r1
     52c:	39 f0       	breq	.+14     	; 0x53c <__LOCK_REGION_LENGTH__+0x13c>
     52e:	82 30       	cpi	r24, 0x02	; 2
     530:	91 05       	cpc	r25, r1
     532:	81 f0       	breq	.+32     	; 0x554 <__LOCK_REGION_LENGTH__+0x154>
     534:	89 2b       	or	r24, r25
			case 0:
				repeatCommand();           // repeat the command because something got screwed up  This isn't right because I don't do it over spi, do it over USART
     536:	99 f4       	brne	.+38     	; 0x55e <__LOCK_REGION_LENGTH__+0x15e>
				break;
     538:	01 d1       	rcall	.+514    	; 0x73c <repeatCommand>
			case 1:
				if (data == 'S'){          // GUI wants the engine to stop
     53a:	11 c0       	rjmp	.+34     	; 0x55e <__LOCK_REGION_LENGTH__+0x15e>
     53c:	89 81       	ldd	r24, Y+1	; 0x01
     53e:	83 35       	cpi	r24, 0x53	; 83
					shutdown();
     540:	11 f4       	brne	.+4      	; 0x546 <__LOCK_REGION_LENGTH__+0x146>
				}
				else if (data == 'r'){     // GUI wants the engine to start
     542:	f2 d3       	rcall	.+2020   	; 0xd28 <shutdown>
     544:	0c c0       	rjmp	.+24     	; 0x55e <__LOCK_REGION_LENGTH__+0x15e>
     546:	89 81       	ldd	r24, Y+1	; 0x01
					startup();
     548:	82 37       	cpi	r24, 0x72	; 114
				}
				else{
					repeatCommand();       // undefined behavior, ask GUI to repeat
				}
				break;
     54a:	11 f4       	brne	.+4      	; 0x550 <__LOCK_REGION_LENGTH__+0x150>
				}
				else if (data == 'r'){     // GUI wants the engine to start
					startup();
				}
				else{
					repeatCommand();       // undefined behavior, ask GUI to repeat
     54c:	04 d4       	rcall	.+2056   	; 0xd56 <startup>
     54e:	07 c0       	rjmp	.+14     	; 0x55e <__LOCK_REGION_LENGTH__+0x15e>
				}
				break;
     550:	f5 d0       	rcall	.+490    	; 0x73c <repeatCommand>
			case 2:
				throttle_per = data;       // GUI wants the throttle to the value specified by data
     552:	05 c0       	rjmp	.+10     	; 0x55e <__LOCK_REGION_LENGTH__+0x15e>
     554:	89 81       	ldd	r24, Y+1	; 0x01
     556:	80 93 3d 02 	sts	0x023D, r24	; 0x80023d <throttle_per>
				throttle();
     55a:	14 d4       	rcall	.+2088   	; 0xd84 <throttle>
				break;
     55c:	00 00       	nop
		}
		newCommand = 1;                    // reset this so that a new command will be accepted in the way that is expected
     55e:	81 e0       	ldi	r24, 0x01	; 1
     560:	80 93 1e 02 	sts	0x021E, r24	; 0x80021e <newCommand>
		
	}
}
     564:	00 c0       	rjmp	.+0      	; 0x566 <__LOCK_REGION_LENGTH__+0x166>
     566:	00 00       	nop
     568:	0f 90       	pop	r0
     56a:	df 91       	pop	r29
     56c:	cf 91       	pop	r28
     56e:	ff 91       	pop	r31
     570:	ef 91       	pop	r30
     572:	bf 91       	pop	r27
     574:	af 91       	pop	r26
     576:	9f 91       	pop	r25
     578:	8f 91       	pop	r24
     57a:	7f 91       	pop	r23
     57c:	6f 91       	pop	r22
     57e:	5f 91       	pop	r21
     580:	4f 91       	pop	r20
     582:	3f 91       	pop	r19
     584:	2f 91       	pop	r18
     586:	0f 90       	pop	r0
     588:	00 92 5b 00 	sts	0x005B, r0	; 0x80005b <__TEXT_REGION_LENGTH__+0x70005b>
     58c:	0f 90       	pop	r0
     58e:	00 92 5f 00 	sts	0x005F, r0	; 0x80005f <__TEXT_REGION_LENGTH__+0x70005f>
     592:	0f 90       	pop	r0
     594:	1f 90       	pop	r1
     596:	18 95       	reti

00000598 <__vector_36>:

// This interrupt will be triggered whenever data is received from the ESB
ISR(USART1_RX_vect)
{
     598:	1f 92       	push	r1
     59a:	0f 92       	push	r0
     59c:	00 90 5f 00 	lds	r0, 0x005F	; 0x80005f <__TEXT_REGION_LENGTH__+0x70005f>
     5a0:	0f 92       	push	r0
     5a2:	11 24       	eor	r1, r1
     5a4:	00 90 5b 00 	lds	r0, 0x005B	; 0x80005b <__TEXT_REGION_LENGTH__+0x70005b>
     5a8:	0f 92       	push	r0
     5aa:	2f 93       	push	r18
     5ac:	3f 93       	push	r19
     5ae:	8f 93       	push	r24
     5b0:	9f 93       	push	r25
     5b2:	ef 93       	push	r30
     5b4:	ff 93       	push	r31
     5b6:	cf 93       	push	r28
     5b8:	df 93       	push	r29
     5ba:	1f 92       	push	r1
     5bc:	cd b7       	in	r28, 0x3d	; 61
     5be:	de b7       	in	r29, 0x3e	; 62
	uint8_t data = UDR1;
     5c0:	8e ec       	ldi	r24, 0xCE	; 206
     5c2:	90 e0       	ldi	r25, 0x00	; 0
     5c4:	fc 01       	movw	r30, r24
     5c6:	80 81       	ld	r24, Z
     5c8:	89 83       	std	Y+1, r24	; 0x01
	hasInterrupted = 1;      // set this flag so other functions will know if they have been interrupted
     5ca:	81 e0       	ldi	r24, 0x01	; 1
     5cc:	80 93 0a 02 	sts	0x020A, r24	; 0x80020a <hasInterrupted>
	if (newCommand_ESB == 1)
     5d0:	80 91 25 02 	lds	r24, 0x0225	; 0x800225 <newCommand_ESB>
     5d4:	81 30       	cpi	r24, 0x01	; 1
     5d6:	31 f5       	brne	.+76     	; 0x624 <__vector_36+0x8c>
	{
		ESBreceive[0] = data;
     5d8:	89 81       	ldd	r24, Y+1	; 0x01
     5da:	80 93 29 02 	sts	0x0229, r24	; 0x800229 <ESBreceive>
		if (data == 'K'){
     5de:	89 81       	ldd	r24, Y+1	; 0x01
     5e0:	8b 34       	cpi	r24, 0x4B	; 75
     5e2:	31 f4       	brne	.+12     	; 0x5f0 <__vector_36+0x58>
			newCommand_ESB = 1;
     5e4:	81 e0       	ldi	r24, 0x01	; 1
     5e6:	80 93 25 02 	sts	0x0225, r24	; 0x800225 <newCommand_ESB>
			ESBreceiveCount = 0;
     5ea:	10 92 3c 02 	sts	0x023C, r1	; 0x80023c <ESBreceiveCount>
			ESBreceiveCount = 0;
			newCommand_ESB = 1;                       // This indicates the end of the data string
		}
	}
	
}
     5ee:	78 c0       	rjmp	.+240    	; 0x6e0 <__vector_36+0x148>
		ESBreceive[0] = data;
		if (data == 'K'){
			newCommand_ESB = 1;
			ESBreceiveCount = 0;
		}
		else if (data == 'D'){
     5f0:	89 81       	ldd	r24, Y+1	; 0x01
     5f2:	84 34       	cpi	r24, 0x44	; 68
     5f4:	31 f4       	brne	.+12     	; 0x602 <__vector_36+0x6a>
			newCommand_ESB = 2;       // this means that the ESB is sending the connection string back
     5f6:	82 e0       	ldi	r24, 0x02	; 2
     5f8:	80 93 25 02 	sts	0x0225, r24	; 0x800225 <newCommand_ESB>
			ESBreceiveCount = 0;
     5fc:	10 92 3c 02 	sts	0x023C, r1	; 0x80023c <ESBreceiveCount>
			ESBreceiveCount = 0;
			newCommand_ESB = 1;                       // This indicates the end of the data string
		}
	}
	
}
     600:	6f c0       	rjmp	.+222    	; 0x6e0 <__vector_36+0x148>
		}
		else if (data == 'D'){
			newCommand_ESB = 2;       // this means that the ESB is sending the connection string back
			ESBreceiveCount = 0;
		}
		else if (data == 'N'){
     602:	89 81       	ldd	r24, Y+1	; 0x01
     604:	8e 34       	cpi	r24, 0x4E	; 78
     606:	09 f0       	breq	.+2      	; 0x60a <__vector_36+0x72>
     608:	6b c0       	rjmp	.+214    	; 0x6e0 <__vector_36+0x148>
			newCommand_ESB = 3;
     60a:	83 e0       	ldi	r24, 0x03	; 3
     60c:	80 93 25 02 	sts	0x0225, r24	; 0x800225 <newCommand_ESB>
			ESBreceiveCount = 0;
     610:	10 92 3c 02 	sts	0x023C, r1	; 0x80023c <ESBreceiveCount>
			TCNT5 = ESB_timer_val;
     614:	84 e2       	ldi	r24, 0x24	; 36
     616:	91 e0       	ldi	r25, 0x01	; 1
     618:	2c ed       	ldi	r18, 0xDC	; 220
     61a:	3b e0       	ldi	r19, 0x0B	; 11
     61c:	fc 01       	movw	r30, r24
     61e:	31 83       	std	Z+1, r19	; 0x01
     620:	20 83       	st	Z, r18
			ESBreceiveCount = 0;
			newCommand_ESB = 1;                       // This indicates the end of the data string
		}
	}
	
}
     622:	5e c0       	rjmp	.+188    	; 0x6e0 <__vector_36+0x148>
			newCommand_ESB = 3;
			ESBreceiveCount = 0;
			TCNT5 = ESB_timer_val;
		}
	}
	else if (newCommand_ESB == 2){
     624:	80 91 25 02 	lds	r24, 0x0225	; 0x800225 <newCommand_ESB>
     628:	82 30       	cpi	r24, 0x02	; 2
     62a:	d9 f5       	brne	.+118    	; 0x6a2 <__vector_36+0x10a>
		ESBreceiveCount++;
     62c:	80 91 3c 02 	lds	r24, 0x023C	; 0x80023c <ESBreceiveCount>
     630:	8f 5f       	subi	r24, 0xFF	; 255
     632:	80 93 3c 02 	sts	0x023C, r24	; 0x80023c <ESBreceiveCount>
		switch(ESBreceiveCount){
     636:	80 91 3c 02 	lds	r24, 0x023C	; 0x80023c <ESBreceiveCount>
     63a:	88 2f       	mov	r24, r24
     63c:	90 e0       	ldi	r25, 0x00	; 0
     63e:	82 30       	cpi	r24, 0x02	; 2
     640:	91 05       	cpc	r25, r1
     642:	81 f0       	breq	.+32     	; 0x664 <__vector_36+0xcc>
     644:	83 30       	cpi	r24, 0x03	; 3
     646:	91 05       	cpc	r25, r1
     648:	b1 f0       	breq	.+44     	; 0x676 <__vector_36+0xde>
     64a:	01 97       	sbiw	r24, 0x01	; 1
     64c:	09 f0       	breq	.+2      	; 0x650 <__vector_36+0xb8>
			ESBreceiveCount = 0;
			newCommand_ESB = 1;                       // This indicates the end of the data string
		}
	}
	
}
     64e:	48 c0       	rjmp	.+144    	; 0x6e0 <__vector_36+0x148>
	}
	else if (newCommand_ESB == 2){
		ESBreceiveCount++;
		switch(ESBreceiveCount){
			case 1:
				if (data != 'A'){
     650:	89 81       	ldd	r24, Y+1	; 0x01
     652:	81 34       	cpi	r24, 0x41	; 65
     654:	09 f4       	brne	.+2      	; 0x658 <__vector_36+0xc0>
     656:	41 c0       	rjmp	.+130    	; 0x6da <__vector_36+0x142>
					ESBreceiveCount = 0;
     658:	10 92 3c 02 	sts	0x023C, r1	; 0x80023c <ESBreceiveCount>
					newCommand_ESB = 1;
     65c:	81 e0       	ldi	r24, 0x01	; 1
     65e:	80 93 25 02 	sts	0x0225, r24	; 0x800225 <newCommand_ESB>
				}
				break;
     662:	3b c0       	rjmp	.+118    	; 0x6da <__vector_36+0x142>
			case 2:
				if (data != 'L'){
     664:	89 81       	ldd	r24, Y+1	; 0x01
     666:	8c 34       	cpi	r24, 0x4C	; 76
     668:	d1 f1       	breq	.+116    	; 0x6de <__vector_36+0x146>
					ESBreceiveCount = 0;
     66a:	10 92 3c 02 	sts	0x023C, r1	; 0x80023c <ESBreceiveCount>
					newCommand_ESB = 1;	
     66e:	81 e0       	ldi	r24, 0x01	; 1
     670:	80 93 25 02 	sts	0x0225, r24	; 0x800225 <newCommand_ESB>
				}
				break;
     674:	34 c0       	rjmp	.+104    	; 0x6de <__vector_36+0x146>
			case 3:
				if (data == 'E'){
     676:	89 81       	ldd	r24, Y+1	; 0x01
     678:	85 34       	cpi	r24, 0x45	; 69
     67a:	61 f4       	brne	.+24     	; 0x694 <__vector_36+0xfc>
					connected = 1;
     67c:	81 e0       	ldi	r24, 0x01	; 1
     67e:	80 93 26 02 	sts	0x0226, r24	; 0x800226 <connected>
					TCCR5B |= (1 << CS52);      // start the ESB connection timer with a prescalar of 256
     682:	81 e2       	ldi	r24, 0x21	; 33
     684:	91 e0       	ldi	r25, 0x01	; 1
     686:	21 e2       	ldi	r18, 0x21	; 33
     688:	31 e0       	ldi	r19, 0x01	; 1
     68a:	f9 01       	movw	r30, r18
     68c:	20 81       	ld	r18, Z
     68e:	24 60       	ori	r18, 0x04	; 4
     690:	fc 01       	movw	r30, r24
     692:	20 83       	st	Z, r18
				}
				ESBreceiveCount = 0;
     694:	10 92 3c 02 	sts	0x023C, r1	; 0x80023c <ESBreceiveCount>
				newCommand_ESB = 1;
     698:	81 e0       	ldi	r24, 0x01	; 1
     69a:	80 93 25 02 	sts	0x0225, r24	; 0x800225 <newCommand_ESB>
				break;
     69e:	00 00       	nop
     6a0:	1f c0       	rjmp	.+62     	; 0x6e0 <__vector_36+0x148>

		}
	}
	else if (newCommand_ESB == 3){                     // This will handle the normal data transmission
     6a2:	80 91 25 02 	lds	r24, 0x0225	; 0x800225 <newCommand_ESB>
     6a6:	83 30       	cpi	r24, 0x03	; 3
     6a8:	d9 f4       	brne	.+54     	; 0x6e0 <__vector_36+0x148>
		ESBreceiveCount++;
     6aa:	80 91 3c 02 	lds	r24, 0x023C	; 0x80023c <ESBreceiveCount>
     6ae:	8f 5f       	subi	r24, 0xFF	; 255
     6b0:	80 93 3c 02 	sts	0x023C, r24	; 0x80023c <ESBreceiveCount>
		ESBreceive[ESBreceiveCount] = data;
     6b4:	80 91 3c 02 	lds	r24, 0x023C	; 0x80023c <ESBreceiveCount>
     6b8:	88 2f       	mov	r24, r24
     6ba:	90 e0       	ldi	r25, 0x00	; 0
     6bc:	87 5d       	subi	r24, 0xD7	; 215
     6be:	9d 4f       	sbci	r25, 0xFD	; 253
     6c0:	29 81       	ldd	r18, Y+1	; 0x01
     6c2:	fc 01       	movw	r30, r24
     6c4:	20 83       	st	Z, r18
		if (ESBreceiveCount >= 8){
     6c6:	80 91 3c 02 	lds	r24, 0x023C	; 0x80023c <ESBreceiveCount>
     6ca:	88 30       	cpi	r24, 0x08	; 8
     6cc:	48 f0       	brcs	.+18     	; 0x6e0 <__vector_36+0x148>
			ESBreceiveCount = 0;
     6ce:	10 92 3c 02 	sts	0x023C, r1	; 0x80023c <ESBreceiveCount>
			newCommand_ESB = 1;                       // This indicates the end of the data string
     6d2:	81 e0       	ldi	r24, 0x01	; 1
     6d4:	80 93 25 02 	sts	0x0225, r24	; 0x800225 <newCommand_ESB>
		}
	}
	
}
     6d8:	03 c0       	rjmp	.+6      	; 0x6e0 <__vector_36+0x148>
			case 1:
				if (data != 'A'){
					ESBreceiveCount = 0;
					newCommand_ESB = 1;
				}
				break;
     6da:	00 00       	nop
     6dc:	01 c0       	rjmp	.+2      	; 0x6e0 <__vector_36+0x148>
			case 2:
				if (data != 'L'){
					ESBreceiveCount = 0;
					newCommand_ESB = 1;	
				}
				break;
     6de:	00 00       	nop
			ESBreceiveCount = 0;
			newCommand_ESB = 1;                       // This indicates the end of the data string
		}
	}
	
}
     6e0:	00 00       	nop
     6e2:	0f 90       	pop	r0
     6e4:	df 91       	pop	r29
     6e6:	cf 91       	pop	r28
     6e8:	ff 91       	pop	r31
     6ea:	ef 91       	pop	r30
     6ec:	9f 91       	pop	r25
     6ee:	8f 91       	pop	r24
     6f0:	3f 91       	pop	r19
     6f2:	2f 91       	pop	r18
     6f4:	0f 90       	pop	r0
     6f6:	00 92 5b 00 	sts	0x005B, r0	; 0x80005b <__TEXT_REGION_LENGTH__+0x70005b>
     6fa:	0f 90       	pop	r0
     6fc:	00 92 5f 00 	sts	0x005F, r0	; 0x80005f <__TEXT_REGION_LENGTH__+0x70005f>
     700:	0f 90       	pop	r0
     702:	1f 90       	pop	r1
     704:	18 95       	reti

00000706 <packageMessage>:

void packageMessage(void)
{
     706:	cf 93       	push	r28
     708:	df 93       	push	r29
     70a:	cd b7       	in	r28, 0x3d	; 61
     70c:	de b7       	in	r29, 0x3e	; 62
	ESBtransmit[0] = 'N';
     70e:	8e e4       	ldi	r24, 0x4E	; 78
     710:	80 93 15 02 	sts	0x0215, r24	; 0x800215 <ESBtransmit>
	ESBtransmit[1] = massFlow.c[0];
     714:	80 91 11 02 	lds	r24, 0x0211	; 0x800211 <massFlow>
     718:	80 93 16 02 	sts	0x0216, r24	; 0x800216 <ESBtransmit+0x1>
	ESBtransmit[2] = massFlow.c[1];
     71c:	80 91 12 02 	lds	r24, 0x0212	; 0x800212 <massFlow+0x1>
     720:	80 93 17 02 	sts	0x0217, r24	; 0x800217 <ESBtransmit+0x2>
	ESBtransmit[3] = massFlow.c[2];
     724:	80 91 13 02 	lds	r24, 0x0213	; 0x800213 <massFlow+0x2>
     728:	80 93 18 02 	sts	0x0218, r24	; 0x800218 <ESBtransmit+0x3>
	ESBtransmit[4] = massFlow.c[3];
     72c:	80 91 14 02 	lds	r24, 0x0214	; 0x800214 <massFlow+0x3>
     730:	80 93 19 02 	sts	0x0219, r24	; 0x800219 <ESBtransmit+0x4>
}
     734:	00 00       	nop
     736:	df 91       	pop	r29
     738:	cf 91       	pop	r28
     73a:	08 95       	ret

0000073c <repeatCommand>:
 *
 *  @param void
 *  @return void
 */
void repeatCommand(void)
{
     73c:	cf 93       	push	r28
     73e:	df 93       	push	r29
     740:	cd b7       	in	r28, 0x3d	; 61
     742:	de b7       	in	r29, 0x3e	; 62
	/* Wait for empty transmit buffer */
	while ( !( UCSR0A & (1<<UDRE0)) );
     744:	00 00       	nop
     746:	80 ec       	ldi	r24, 0xC0	; 192
     748:	90 e0       	ldi	r25, 0x00	; 0
     74a:	fc 01       	movw	r30, r24
     74c:	80 81       	ld	r24, Z
     74e:	88 2f       	mov	r24, r24
     750:	90 e0       	ldi	r25, 0x00	; 0
     752:	80 72       	andi	r24, 0x20	; 32
     754:	99 27       	eor	r25, r25
     756:	89 2b       	or	r24, r25
     758:	b1 f3       	breq	.-20     	; 0x746 <repeatCommand+0xa>
	
	/* Put data into buffer, sends the data */
	UDR0 = 'V';
     75a:	86 ec       	ldi	r24, 0xC6	; 198
     75c:	90 e0       	ldi	r25, 0x00	; 0
     75e:	26 e5       	ldi	r18, 0x56	; 86
     760:	fc 01       	movw	r30, r24
     762:	20 83       	st	Z, r18
	repeatCount++;
     764:	80 91 32 02 	lds	r24, 0x0232	; 0x800232 <repeatCount>
     768:	8f 5f       	subi	r24, 0xFF	; 255
     76a:	80 93 32 02 	sts	0x0232, r24	; 0x800232 <repeatCount>
	
	// Will have to see in unit testing how long this takes to get the response from the GUI
}
     76e:	00 00       	nop
     770:	df 91       	pop	r29
     772:	cf 91       	pop	r28
     774:	08 95       	ret

00000776 <measureFlow>:
		upper = upper & 0x0F; //Clear SIGN
		ECU_temp = (float)(256 - (upper * 16 + lower / 16));
	}
	else //TA >= 0C
	ECU_temp = (float)(upper * 16 + lower / 16);     //Temperature = Ambient Temperature (C)
}
     776:	cf 93       	push	r28
     778:	df 93       	push	r29
     77a:	cd b7       	in	r28, 0x3d	; 61
     77c:	de b7       	in	r29, 0x3e	; 62
     77e:	10 92 31 02 	sts	0x0231, r1	; 0x800231 <pulse_count>
     782:	8d e3       	ldi	r24, 0x3D	; 61
     784:	90 e0       	ldi	r25, 0x00	; 0
     786:	2d e3       	ldi	r18, 0x3D	; 61
     788:	30 e0       	ldi	r19, 0x00	; 0
     78a:	f9 01       	movw	r30, r18
     78c:	20 81       	ld	r18, Z
     78e:	24 60       	ori	r18, 0x04	; 4
     790:	fc 01       	movw	r30, r24
     792:	20 83       	st	Z, r18
     794:	81 e9       	ldi	r24, 0x91	; 145
     796:	90 e0       	ldi	r25, 0x00	; 0
     798:	21 e9       	ldi	r18, 0x91	; 145
     79a:	30 e0       	ldi	r19, 0x00	; 0
     79c:	f9 01       	movw	r30, r18
     79e:	20 81       	ld	r18, Z
     7a0:	23 60       	ori	r18, 0x03	; 3
     7a2:	fc 01       	movw	r30, r24
     7a4:	20 83       	st	Z, r18
     7a6:	00 00       	nop
     7a8:	88 e3       	ldi	r24, 0x38	; 56
     7aa:	90 e0       	ldi	r25, 0x00	; 0
     7ac:	fc 01       	movw	r30, r24
     7ae:	80 81       	ld	r24, Z
     7b0:	88 2f       	mov	r24, r24
     7b2:	90 e0       	ldi	r25, 0x00	; 0
     7b4:	81 70       	andi	r24, 0x01	; 1
     7b6:	99 27       	eor	r25, r25
     7b8:	89 2b       	or	r24, r25
     7ba:	b1 f3       	breq	.-20     	; 0x7a8 <measureFlow+0x32>
     7bc:	88 e3       	ldi	r24, 0x38	; 56
     7be:	90 e0       	ldi	r25, 0x00	; 0
     7c0:	28 e3       	ldi	r18, 0x38	; 56
     7c2:	30 e0       	ldi	r19, 0x00	; 0
     7c4:	f9 01       	movw	r30, r18
     7c6:	20 81       	ld	r18, Z
     7c8:	21 60       	ori	r18, 0x01	; 1
     7ca:	fc 01       	movw	r30, r24
     7cc:	20 83       	st	Z, r18
     7ce:	40 e0       	ldi	r20, 0x00	; 0
     7d0:	62 e0       	ldi	r22, 0x02	; 2
     7d2:	8d e3       	ldi	r24, 0x3D	; 61
     7d4:	90 e0       	ldi	r25, 0x00	; 0
     7d6:	2f d0       	rcall	.+94     	; 0x836 <assign_bit>
     7d8:	40 e0       	ldi	r20, 0x00	; 0
     7da:	61 e0       	ldi	r22, 0x01	; 1
     7dc:	81 e9       	ldi	r24, 0x91	; 145
     7de:	90 e0       	ldi	r25, 0x00	; 0
     7e0:	2a d0       	rcall	.+84     	; 0x836 <assign_bit>
     7e2:	40 e0       	ldi	r20, 0x00	; 0
     7e4:	60 e0       	ldi	r22, 0x00	; 0
     7e6:	81 e9       	ldi	r24, 0x91	; 145
     7e8:	90 e0       	ldi	r25, 0x00	; 0
     7ea:	25 d0       	rcall	.+74     	; 0x836 <assign_bit>
     7ec:	84 e9       	ldi	r24, 0x94	; 148
     7ee:	90 e0       	ldi	r25, 0x00	; 0
     7f0:	24 e7       	ldi	r18, 0x74	; 116
     7f2:	3e e0       	ldi	r19, 0x0E	; 14
     7f4:	fc 01       	movw	r30, r24
     7f6:	31 83       	std	Z+1, r19	; 0x01
     7f8:	20 83       	st	Z, r18
     7fa:	00 00       	nop
     7fc:	df 91       	pop	r29
     7fe:	cf 91       	pop	r28
     800:	08 95       	ret

00000802 <__vector_3>:
     802:	1f 92       	push	r1
     804:	0f 92       	push	r0
     806:	00 90 5f 00 	lds	r0, 0x005F	; 0x80005f <__TEXT_REGION_LENGTH__+0x70005f>
     80a:	0f 92       	push	r0
     80c:	11 24       	eor	r1, r1
     80e:	8f 93       	push	r24
     810:	cf 93       	push	r28
     812:	df 93       	push	r29
     814:	cd b7       	in	r28, 0x3d	; 61
     816:	de b7       	in	r29, 0x3e	; 62
     818:	80 91 31 02 	lds	r24, 0x0231	; 0x800231 <pulse_count>
     81c:	8f 5f       	subi	r24, 0xFF	; 255
     81e:	80 93 31 02 	sts	0x0231, r24	; 0x800231 <pulse_count>
     822:	00 00       	nop
     824:	df 91       	pop	r29
     826:	cf 91       	pop	r28
     828:	8f 91       	pop	r24
     82a:	0f 90       	pop	r0
     82c:	00 92 5f 00 	sts	0x005F, r0	; 0x80005f <__TEXT_REGION_LENGTH__+0x70005f>
     830:	0f 90       	pop	r0
     832:	1f 90       	pop	r1
     834:	18 95       	reti

00000836 <assign_bit>:
     836:	cf 93       	push	r28
     838:	df 93       	push	r29
     83a:	00 d0       	rcall	.+0      	; 0x83c <assign_bit+0x6>
     83c:	1f 92       	push	r1
     83e:	cd b7       	in	r28, 0x3d	; 61
     840:	de b7       	in	r29, 0x3e	; 62
     842:	9a 83       	std	Y+2, r25	; 0x02
     844:	89 83       	std	Y+1, r24	; 0x01
     846:	6b 83       	std	Y+3, r22	; 0x03
     848:	4c 83       	std	Y+4, r20	; 0x04
     84a:	8c 81       	ldd	r24, Y+4	; 0x04
     84c:	88 23       	and	r24, r24
     84e:	c1 f0       	breq	.+48     	; 0x880 <assign_bit+0x4a>
     850:	8c 81       	ldd	r24, Y+4	; 0x04
     852:	88 2f       	mov	r24, r24
     854:	90 e0       	ldi	r25, 0x00	; 0
     856:	2b 81       	ldd	r18, Y+3	; 0x03
     858:	22 2f       	mov	r18, r18
     85a:	30 e0       	ldi	r19, 0x00	; 0
     85c:	02 c0       	rjmp	.+4      	; 0x862 <assign_bit+0x2c>
     85e:	88 0f       	add	r24, r24
     860:	99 1f       	adc	r25, r25
     862:	2a 95       	dec	r18
     864:	e2 f7       	brpl	.-8      	; 0x85e <assign_bit+0x28>
     866:	8c 83       	std	Y+4, r24	; 0x04
     868:	89 81       	ldd	r24, Y+1	; 0x01
     86a:	9a 81       	ldd	r25, Y+2	; 0x02
     86c:	fc 01       	movw	r30, r24
     86e:	90 81       	ld	r25, Z
     870:	8c 81       	ldd	r24, Y+4	; 0x04
     872:	29 2f       	mov	r18, r25
     874:	28 2b       	or	r18, r24
     876:	89 81       	ldd	r24, Y+1	; 0x01
     878:	9a 81       	ldd	r25, Y+2	; 0x02
     87a:	fc 01       	movw	r30, r24
     87c:	20 83       	st	Z, r18
     87e:	17 c0       	rjmp	.+46     	; 0x8ae <assign_bit+0x78>
     880:	8b 81       	ldd	r24, Y+3	; 0x03
     882:	28 2f       	mov	r18, r24
     884:	30 e0       	ldi	r19, 0x00	; 0
     886:	81 e0       	ldi	r24, 0x01	; 1
     888:	90 e0       	ldi	r25, 0x00	; 0
     88a:	02 c0       	rjmp	.+4      	; 0x890 <assign_bit+0x5a>
     88c:	88 0f       	add	r24, r24
     88e:	99 1f       	adc	r25, r25
     890:	2a 95       	dec	r18
     892:	e2 f7       	brpl	.-8      	; 0x88c <assign_bit+0x56>
     894:	80 95       	com	r24
     896:	8c 83       	std	Y+4, r24	; 0x04
     898:	89 81       	ldd	r24, Y+1	; 0x01
     89a:	9a 81       	ldd	r25, Y+2	; 0x02
     89c:	fc 01       	movw	r30, r24
     89e:	90 81       	ld	r25, Z
     8a0:	8c 81       	ldd	r24, Y+4	; 0x04
     8a2:	29 2f       	mov	r18, r25
     8a4:	28 23       	and	r18, r24
     8a6:	89 81       	ldd	r24, Y+1	; 0x01
     8a8:	9a 81       	ldd	r25, Y+2	; 0x02
     8aa:	fc 01       	movw	r30, r24
     8ac:	20 83       	st	Z, r18
     8ae:	00 00       	nop
     8b0:	0f 90       	pop	r0
     8b2:	0f 90       	pop	r0
     8b4:	0f 90       	pop	r0
     8b6:	0f 90       	pop	r0
     8b8:	df 91       	pop	r29
     8ba:	cf 91       	pop	r28
     8bc:	08 95       	ret

000008be <__vector_45>:
     8be:	1f 92       	push	r1
     8c0:	0f 92       	push	r0
     8c2:	00 90 5f 00 	lds	r0, 0x005F	; 0x80005f <__TEXT_REGION_LENGTH__+0x70005f>
     8c6:	0f 92       	push	r0
     8c8:	11 24       	eor	r1, r1
     8ca:	00 90 5b 00 	lds	r0, 0x005B	; 0x80005b <__TEXT_REGION_LENGTH__+0x70005b>
     8ce:	0f 92       	push	r0
     8d0:	2f 93       	push	r18
     8d2:	3f 93       	push	r19
     8d4:	4f 93       	push	r20
     8d6:	5f 93       	push	r21
     8d8:	6f 93       	push	r22
     8da:	7f 93       	push	r23
     8dc:	8f 93       	push	r24
     8de:	9f 93       	push	r25
     8e0:	af 93       	push	r26
     8e2:	bf 93       	push	r27
     8e4:	ef 93       	push	r30
     8e6:	ff 93       	push	r31
     8e8:	cf 93       	push	r28
     8ea:	df 93       	push	r29
     8ec:	cd b7       	in	r28, 0x3d	; 61
     8ee:	de b7       	in	r29, 0x3e	; 62
     8f0:	40 e0       	ldi	r20, 0x00	; 0
     8f2:	61 e0       	ldi	r22, 0x01	; 1
     8f4:	81 ea       	ldi	r24, 0xA1	; 161
     8f6:	90 e0       	ldi	r25, 0x00	; 0
     8f8:	9e df       	rcall	.-196    	; 0x836 <assign_bit>
     8fa:	40 e0       	ldi	r20, 0x00	; 0
     8fc:	60 e0       	ldi	r22, 0x00	; 0
     8fe:	81 ea       	ldi	r24, 0xA1	; 161
     900:	90 e0       	ldi	r25, 0x00	; 0
     902:	99 df       	rcall	.-206    	; 0x836 <assign_bit>
     904:	84 ea       	ldi	r24, 0xA4	; 164
     906:	90 e0       	ldi	r25, 0x00	; 0
     908:	28 e5       	ldi	r18, 0x58	; 88
     90a:	3e e9       	ldi	r19, 0x9E	; 158
     90c:	fc 01       	movw	r30, r24
     90e:	31 83       	std	Z+1, r19	; 0x01
     910:	20 83       	st	Z, r18
     912:	0a d2       	rcall	.+1044   	; 0xd28 <shutdown>
     914:	10 92 26 02 	sts	0x0226, r1	; 0x800226 <connected>
     918:	81 e0       	ldi	r24, 0x01	; 1
     91a:	80 93 1e 02 	sts	0x021E, r24	; 0x80021e <newCommand>
     91e:	00 00       	nop
     920:	df 91       	pop	r29
     922:	cf 91       	pop	r28
     924:	ff 91       	pop	r31
     926:	ef 91       	pop	r30
     928:	bf 91       	pop	r27
     92a:	af 91       	pop	r26
     92c:	9f 91       	pop	r25
     92e:	8f 91       	pop	r24
     930:	7f 91       	pop	r23
     932:	6f 91       	pop	r22
     934:	5f 91       	pop	r21
     936:	4f 91       	pop	r20
     938:	3f 91       	pop	r19
     93a:	2f 91       	pop	r18
     93c:	0f 90       	pop	r0
     93e:	00 92 5b 00 	sts	0x005B, r0	; 0x80005b <__TEXT_REGION_LENGTH__+0x70005b>
     942:	0f 90       	pop	r0
     944:	00 92 5f 00 	sts	0x005F, r0	; 0x80005f <__TEXT_REGION_LENGTH__+0x70005f>
     948:	0f 90       	pop	r0
     94a:	1f 90       	pop	r1
     94c:	18 95       	reti

0000094e <__vector_50>:
     94e:	1f 92       	push	r1
     950:	0f 92       	push	r0
     952:	00 90 5f 00 	lds	r0, 0x005F	; 0x80005f <__TEXT_REGION_LENGTH__+0x70005f>
     956:	0f 92       	push	r0
     958:	11 24       	eor	r1, r1
     95a:	00 90 5b 00 	lds	r0, 0x005B	; 0x80005b <__TEXT_REGION_LENGTH__+0x70005b>
     95e:	0f 92       	push	r0
     960:	2f 93       	push	r18
     962:	3f 93       	push	r19
     964:	4f 93       	push	r20
     966:	5f 93       	push	r21
     968:	6f 93       	push	r22
     96a:	7f 93       	push	r23
     96c:	8f 93       	push	r24
     96e:	9f 93       	push	r25
     970:	af 93       	push	r26
     972:	bf 93       	push	r27
     974:	ef 93       	push	r30
     976:	ff 93       	push	r31
     978:	cf 93       	push	r28
     97a:	df 93       	push	r29
     97c:	cd b7       	in	r28, 0x3d	; 61
     97e:	de b7       	in	r29, 0x3e	; 62
     980:	85 e0       	ldi	r24, 0x05	; 5
     982:	80 93 0b 02 	sts	0x020B, r24	; 0x80020b <opMode>
     986:	40 e0       	ldi	r20, 0x00	; 0
     988:	62 e0       	ldi	r22, 0x02	; 2
     98a:	81 e2       	ldi	r24, 0x21	; 33
     98c:	91 e0       	ldi	r25, 0x01	; 1
     98e:	53 df       	rcall	.-346    	; 0x836 <assign_bit>
     990:	84 e2       	ldi	r24, 0x24	; 36
     992:	91 e0       	ldi	r25, 0x01	; 1
     994:	2c ed       	ldi	r18, 0xDC	; 220
     996:	3b e0       	ldi	r19, 0x0B	; 11
     998:	fc 01       	movw	r30, r24
     99a:	31 83       	std	Z+1, r19	; 0x01
     99c:	20 83       	st	Z, r18
     99e:	10 92 26 02 	sts	0x0226, r1	; 0x800226 <connected>
     9a2:	00 00       	nop
     9a4:	df 91       	pop	r29
     9a6:	cf 91       	pop	r28
     9a8:	ff 91       	pop	r31
     9aa:	ef 91       	pop	r30
     9ac:	bf 91       	pop	r27
     9ae:	af 91       	pop	r26
     9b0:	9f 91       	pop	r25
     9b2:	8f 91       	pop	r24
     9b4:	7f 91       	pop	r23
     9b6:	6f 91       	pop	r22
     9b8:	5f 91       	pop	r21
     9ba:	4f 91       	pop	r20
     9bc:	3f 91       	pop	r19
     9be:	2f 91       	pop	r18
     9c0:	0f 90       	pop	r0
     9c2:	00 92 5b 00 	sts	0x005B, r0	; 0x80005b <__TEXT_REGION_LENGTH__+0x70005b>
     9c6:	0f 90       	pop	r0
     9c8:	00 92 5f 00 	sts	0x005F, r0	; 0x80005f <__TEXT_REGION_LENGTH__+0x70005f>
     9cc:	0f 90       	pop	r0
     9ce:	1f 90       	pop	r1
     9d0:	18 95       	reti

000009d2 <calculateParity>:

void calculateParity(char message[])
{
     9d2:	cf 93       	push	r28
     9d4:	df 93       	push	r29
     9d6:	cd b7       	in	r28, 0x3d	; 61
     9d8:	de b7       	in	r29, 0x3e	; 62
     9da:	28 97       	sbiw	r28, 0x08	; 8
     9dc:	0f b6       	in	r0, 0x3f	; 63
     9de:	f8 94       	cli
     9e0:	de bf       	out	0x3e, r29	; 62
     9e2:	0f be       	out	0x3f, r0	; 63
     9e4:	cd bf       	out	0x3d, r28	; 61
     9e6:	98 87       	std	Y+8, r25	; 0x08
     9e8:	8f 83       	std	Y+7, r24	; 0x07
	
	for (unsigned char byte = 0; byte < 3; byte++)
     9ea:	19 82       	std	Y+1, r1	; 0x01
     9ec:	60 c0       	rjmp	.+192    	; 0xaae <calculateParity+0xdc>
	{
		unsigned char parity = 0;
     9ee:	1a 82       	std	Y+2, r1	; 0x02
		
		// first need to get the number of high bits in the first three bytes in the set
		for (unsigned set = 0; set < 2; set++){
     9f0:	1c 82       	std	Y+4, r1	; 0x04
     9f2:	1b 82       	std	Y+3, r1	; 0x03
     9f4:	48 c0       	rjmp	.+144    	; 0xa86 <calculateParity+0xb4>
			unsigned char count = 0;
     9f6:	1d 82       	std	Y+5, r1	; 0x05
			for (unsigned char i = 0; i < 3; i++){
     9f8:	1e 82       	std	Y+6, r1	; 0x06
     9fa:	28 c0       	rjmp	.+80     	; 0xa4c <calculateParity+0x7a>
				count += countOnes(message[byte*6 + set*3 + i]);
     9fc:	89 81       	ldd	r24, Y+1	; 0x01
     9fe:	28 2f       	mov	r18, r24
     a00:	30 e0       	ldi	r19, 0x00	; 0
     a02:	c9 01       	movw	r24, r18
     a04:	88 0f       	add	r24, r24
     a06:	99 1f       	adc	r25, r25
     a08:	82 0f       	add	r24, r18
     a0a:	93 1f       	adc	r25, r19
     a0c:	88 0f       	add	r24, r24
     a0e:	99 1f       	adc	r25, r25
     a10:	ac 01       	movw	r20, r24
     a12:	2b 81       	ldd	r18, Y+3	; 0x03
     a14:	3c 81       	ldd	r19, Y+4	; 0x04
     a16:	c9 01       	movw	r24, r18
     a18:	88 0f       	add	r24, r24
     a1a:	99 1f       	adc	r25, r25
     a1c:	82 0f       	add	r24, r18
     a1e:	93 1f       	adc	r25, r19
     a20:	9a 01       	movw	r18, r20
     a22:	28 0f       	add	r18, r24
     a24:	39 1f       	adc	r19, r25
     a26:	8e 81       	ldd	r24, Y+6	; 0x06
     a28:	88 2f       	mov	r24, r24
     a2a:	90 e0       	ldi	r25, 0x00	; 0
     a2c:	82 0f       	add	r24, r18
     a2e:	93 1f       	adc	r25, r19
     a30:	2f 81       	ldd	r18, Y+7	; 0x07
     a32:	38 85       	ldd	r19, Y+8	; 0x08
     a34:	82 0f       	add	r24, r18
     a36:	93 1f       	adc	r25, r19
     a38:	fc 01       	movw	r30, r24
     a3a:	80 81       	ld	r24, Z
     a3c:	46 d0       	rcall	.+140    	; 0xaca <countOnes>
     a3e:	98 2f       	mov	r25, r24
     a40:	8d 81       	ldd	r24, Y+5	; 0x05
     a42:	89 0f       	add	r24, r25
     a44:	8d 83       	std	Y+5, r24	; 0x05
		unsigned char parity = 0;
		
		// first need to get the number of high bits in the first three bytes in the set
		for (unsigned set = 0; set < 2; set++){
			unsigned char count = 0;
			for (unsigned char i = 0; i < 3; i++){
     a46:	8e 81       	ldd	r24, Y+6	; 0x06
     a48:	8f 5f       	subi	r24, 0xFF	; 255
     a4a:	8e 83       	std	Y+6, r24	; 0x06
     a4c:	8e 81       	ldd	r24, Y+6	; 0x06
     a4e:	83 30       	cpi	r24, 0x03	; 3
     a50:	a8 f2       	brcs	.-86     	; 0x9fc <calculateParity+0x2a>
				count += countOnes(message[byte*6 + set*3 + i]);
			}
			// now that I have the count for this set, I need to take the modulo
			count = count % 8;   // Modulo with 8 because I have 4 bits to play with
     a52:	8d 81       	ldd	r24, Y+5	; 0x05
     a54:	87 70       	andi	r24, 0x07	; 7
     a56:	8d 83       	std	Y+5, r24	; 0x05
			
			// now add this into the parity byte
			parity |= count << (4 * set);   // this will make it so that bytes 0-2 will take up the LSB of the parity byte
     a58:	8d 81       	ldd	r24, Y+5	; 0x05
     a5a:	88 2f       	mov	r24, r24
     a5c:	90 e0       	ldi	r25, 0x00	; 0
     a5e:	2b 81       	ldd	r18, Y+3	; 0x03
     a60:	3c 81       	ldd	r19, Y+4	; 0x04
     a62:	22 0f       	add	r18, r18
     a64:	33 1f       	adc	r19, r19
     a66:	22 0f       	add	r18, r18
     a68:	33 1f       	adc	r19, r19
     a6a:	02 c0       	rjmp	.+4      	; 0xa70 <calculateParity+0x9e>
     a6c:	88 0f       	add	r24, r24
     a6e:	99 1f       	adc	r25, r25
     a70:	2a 95       	dec	r18
     a72:	e2 f7       	brpl	.-8      	; 0xa6c <calculateParity+0x9a>
     a74:	98 2f       	mov	r25, r24
     a76:	8a 81       	ldd	r24, Y+2	; 0x02
     a78:	89 2b       	or	r24, r25
     a7a:	8a 83       	std	Y+2, r24	; 0x02
	for (unsigned char byte = 0; byte < 3; byte++)
	{
		unsigned char parity = 0;
		
		// first need to get the number of high bits in the first three bytes in the set
		for (unsigned set = 0; set < 2; set++){
     a7c:	8b 81       	ldd	r24, Y+3	; 0x03
     a7e:	9c 81       	ldd	r25, Y+4	; 0x04
     a80:	01 96       	adiw	r24, 0x01	; 1
     a82:	9c 83       	std	Y+4, r25	; 0x04
     a84:	8b 83       	std	Y+3, r24	; 0x03
     a86:	8b 81       	ldd	r24, Y+3	; 0x03
     a88:	9c 81       	ldd	r25, Y+4	; 0x04
     a8a:	02 97       	sbiw	r24, 0x02	; 2
     a8c:	08 f4       	brcc	.+2      	; 0xa90 <calculateParity+0xbe>
     a8e:	b3 cf       	rjmp	.-154    	; 0x9f6 <calculateParity+0x24>
			// now add this into the parity byte
			parity |= count << (4 * set);   // this will make it so that bytes 0-2 will take up the LSB of the parity byte
		}
		
		// now copy this byte into memory
		message[18 + byte] = parity;
     a90:	89 81       	ldd	r24, Y+1	; 0x01
     a92:	88 2f       	mov	r24, r24
     a94:	90 e0       	ldi	r25, 0x00	; 0
     a96:	42 96       	adiw	r24, 0x12	; 18
     a98:	9c 01       	movw	r18, r24
     a9a:	8f 81       	ldd	r24, Y+7	; 0x07
     a9c:	98 85       	ldd	r25, Y+8	; 0x08
     a9e:	82 0f       	add	r24, r18
     aa0:	93 1f       	adc	r25, r19
     aa2:	2a 81       	ldd	r18, Y+2	; 0x02
     aa4:	fc 01       	movw	r30, r24
     aa6:	20 83       	st	Z, r18
}

void calculateParity(char message[])
{
	
	for (unsigned char byte = 0; byte < 3; byte++)
     aa8:	89 81       	ldd	r24, Y+1	; 0x01
     aaa:	8f 5f       	subi	r24, 0xFF	; 255
     aac:	89 83       	std	Y+1, r24	; 0x01
     aae:	89 81       	ldd	r24, Y+1	; 0x01
     ab0:	83 30       	cpi	r24, 0x03	; 3
     ab2:	08 f4       	brcc	.+2      	; 0xab6 <calculateParity+0xe4>
     ab4:	9c cf       	rjmp	.-200    	; 0x9ee <calculateParity+0x1c>
		}
		
		// now copy this byte into memory
		message[18 + byte] = parity;
	}
}
     ab6:	00 00       	nop
     ab8:	28 96       	adiw	r28, 0x08	; 8
     aba:	0f b6       	in	r0, 0x3f	; 63
     abc:	f8 94       	cli
     abe:	de bf       	out	0x3e, r29	; 62
     ac0:	0f be       	out	0x3f, r0	; 63
     ac2:	cd bf       	out	0x3d, r28	; 61
     ac4:	df 91       	pop	r29
     ac6:	cf 91       	pop	r28
     ac8:	08 95       	ret

00000aca <countOnes>:

unsigned char countOnes(unsigned char byte)
{
     aca:	cf 93       	push	r28
     acc:	df 93       	push	r29
     ace:	1f 92       	push	r1
     ad0:	1f 92       	push	r1
     ad2:	cd b7       	in	r28, 0x3d	; 61
     ad4:	de b7       	in	r29, 0x3e	; 62
     ad6:	8a 83       	std	Y+2, r24	; 0x02
	unsigned char count = 0;
     ad8:	19 82       	std	Y+1, r1	; 0x01
	while (byte)
     ada:	08 c0       	rjmp	.+16     	; 0xaec <countOnes+0x22>
	{
		count += byte & 1;    // this was essentially lifted from geeksforgeeks.com
     adc:	8a 81       	ldd	r24, Y+2	; 0x02
     ade:	81 70       	andi	r24, 0x01	; 1
     ae0:	99 81       	ldd	r25, Y+1	; 0x01
     ae2:	89 0f       	add	r24, r25
     ae4:	89 83       	std	Y+1, r24	; 0x01
		byte >>= 1;
     ae6:	8a 81       	ldd	r24, Y+2	; 0x02
     ae8:	86 95       	lsr	r24
     aea:	8a 83       	std	Y+2, r24	; 0x02
}

unsigned char countOnes(unsigned char byte)
{
	unsigned char count = 0;
	while (byte)
     aec:	8a 81       	ldd	r24, Y+2	; 0x02
     aee:	88 23       	and	r24, r24
     af0:	a9 f7       	brne	.-22     	; 0xadc <countOnes+0x12>
	{
		count += byte & 1;    // this was essentially lifted from geeksforgeeks.com
		byte >>= 1;
	}
	return count;
     af2:	89 81       	ldd	r24, Y+1	; 0x01
}
     af4:	0f 90       	pop	r0
     af6:	0f 90       	pop	r0
     af8:	df 91       	pop	r29
     afa:	cf 91       	pop	r28
     afc:	08 95       	ret

00000afe <dummyData>:

void dummyData(void)
{
     afe:	cf 93       	push	r28
     b00:	df 93       	push	r29
     b02:	cd b7       	in	r28, 0x3d	; 61
     b04:	de b7       	in	r29, 0x3e	; 62
	// this function will produce dummy data
	// first dummy data for the battery
	voltageFinal += 0.2;
     b06:	80 91 1f 02 	lds	r24, 0x021F	; 0x80021f <voltageFinal>
     b0a:	90 91 20 02 	lds	r25, 0x0220	; 0x800220 <voltageFinal+0x1>
     b0e:	a0 91 21 02 	lds	r26, 0x0221	; 0x800221 <voltageFinal+0x2>
     b12:	b0 91 22 02 	lds	r27, 0x0222	; 0x800222 <voltageFinal+0x3>
     b16:	2d ec       	ldi	r18, 0xCD	; 205
     b18:	3c ec       	ldi	r19, 0xCC	; 204
     b1a:	4c e4       	ldi	r20, 0x4C	; 76
     b1c:	5e e3       	ldi	r21, 0x3E	; 62
     b1e:	bc 01       	movw	r22, r24
     b20:	cd 01       	movw	r24, r26
     b22:	96 d2       	rcall	.+1324   	; 0x1050 <__addsf3>
     b24:	dc 01       	movw	r26, r24
     b26:	cb 01       	movw	r24, r22
     b28:	80 93 1f 02 	sts	0x021F, r24	; 0x80021f <voltageFinal>
     b2c:	90 93 20 02 	sts	0x0220, r25	; 0x800220 <voltageFinal+0x1>
     b30:	a0 93 21 02 	sts	0x0221, r26	; 0x800221 <voltageFinal+0x2>
     b34:	b0 93 22 02 	sts	0x0222, r27	; 0x800222 <voltageFinal+0x3>
	if (voltageFinal > 10.8)
     b38:	80 91 1f 02 	lds	r24, 0x021F	; 0x80021f <voltageFinal>
     b3c:	90 91 20 02 	lds	r25, 0x0220	; 0x800220 <voltageFinal+0x1>
     b40:	a0 91 21 02 	lds	r26, 0x0221	; 0x800221 <voltageFinal+0x2>
     b44:	b0 91 22 02 	lds	r27, 0x0222	; 0x800222 <voltageFinal+0x3>
     b48:	2d ec       	ldi	r18, 0xCD	; 205
     b4a:	3c ec       	ldi	r19, 0xCC	; 204
     b4c:	4c e2       	ldi	r20, 0x2C	; 44
     b4e:	51 e4       	ldi	r21, 0x41	; 65
     b50:	bc 01       	movw	r22, r24
     b52:	cd 01       	movw	r24, r26
     b54:	9a d3       	rcall	.+1844   	; 0x128a <__gesf2>
     b56:	18 16       	cp	r1, r24
     b58:	64 f4       	brge	.+24     	; 0xb72 <dummyData+0x74>
		voltageFinal = 7.5;
     b5a:	80 e0       	ldi	r24, 0x00	; 0
     b5c:	90 e0       	ldi	r25, 0x00	; 0
     b5e:	a0 ef       	ldi	r26, 0xF0	; 240
     b60:	b0 e4       	ldi	r27, 0x40	; 64
     b62:	80 93 1f 02 	sts	0x021F, r24	; 0x80021f <voltageFinal>
     b66:	90 93 20 02 	sts	0x0220, r25	; 0x800220 <voltageFinal+0x1>
     b6a:	a0 93 21 02 	sts	0x0221, r26	; 0x800221 <voltageFinal+0x2>
     b6e:	b0 93 22 02 	sts	0x0222, r27	; 0x800222 <voltageFinal+0x3>
		
	// second dummy data for the hall effect sensor
	Hall_effect += 5000;   // this will overflow all on its own
     b72:	80 91 0e 02 	lds	r24, 0x020E	; 0x80020e <Hall_effect>
     b76:	90 91 0f 02 	lds	r25, 0x020F	; 0x80020f <Hall_effect+0x1>
     b7a:	88 57       	subi	r24, 0x78	; 120
     b7c:	9c 4e       	sbci	r25, 0xEC	; 236
     b7e:	90 93 0f 02 	sts	0x020F, r25	; 0x80020f <Hall_effect+0x1>
     b82:	80 93 0e 02 	sts	0x020E, r24	; 0x80020e <Hall_effect>
	
	// third dummy data for the EGT;
	EGT += 3000;
     b86:	80 91 23 02 	lds	r24, 0x0223	; 0x800223 <EGT>
     b8a:	90 91 24 02 	lds	r25, 0x0224	; 0x800224 <EGT+0x1>
     b8e:	88 54       	subi	r24, 0x48	; 72
     b90:	94 4f       	sbci	r25, 0xF4	; 244
     b92:	90 93 24 02 	sts	0x0224, r25	; 0x800224 <EGT+0x1>
     b96:	80 93 23 02 	sts	0x0223, r24	; 0x800223 <EGT>
	
	// fourth dummy data for the mass flow rate
	massFlow.f += 0.05;
     b9a:	80 91 11 02 	lds	r24, 0x0211	; 0x800211 <massFlow>
     b9e:	90 91 12 02 	lds	r25, 0x0212	; 0x800212 <massFlow+0x1>
     ba2:	a0 91 13 02 	lds	r26, 0x0213	; 0x800213 <massFlow+0x2>
     ba6:	b0 91 14 02 	lds	r27, 0x0214	; 0x800214 <massFlow+0x3>
     baa:	2d ec       	ldi	r18, 0xCD	; 205
     bac:	3c ec       	ldi	r19, 0xCC	; 204
     bae:	4c e4       	ldi	r20, 0x4C	; 76
     bb0:	5d e3       	ldi	r21, 0x3D	; 61
     bb2:	bc 01       	movw	r22, r24
     bb4:	cd 01       	movw	r24, r26
     bb6:	4c d2       	rcall	.+1176   	; 0x1050 <__addsf3>
     bb8:	dc 01       	movw	r26, r24
     bba:	cb 01       	movw	r24, r22
     bbc:	80 93 11 02 	sts	0x0211, r24	; 0x800211 <massFlow>
     bc0:	90 93 12 02 	sts	0x0212, r25	; 0x800212 <massFlow+0x1>
     bc4:	a0 93 13 02 	sts	0x0213, r26	; 0x800213 <massFlow+0x2>
     bc8:	b0 93 14 02 	sts	0x0214, r27	; 0x800214 <massFlow+0x3>
	if (massFlow.f > 4.8)
     bcc:	80 91 11 02 	lds	r24, 0x0211	; 0x800211 <massFlow>
     bd0:	90 91 12 02 	lds	r25, 0x0212	; 0x800212 <massFlow+0x1>
     bd4:	a0 91 13 02 	lds	r26, 0x0213	; 0x800213 <massFlow+0x2>
     bd8:	b0 91 14 02 	lds	r27, 0x0214	; 0x800214 <massFlow+0x3>
     bdc:	2a e9       	ldi	r18, 0x9A	; 154
     bde:	39 e9       	ldi	r19, 0x99	; 153
     be0:	49 e9       	ldi	r20, 0x99	; 153
     be2:	50 e4       	ldi	r21, 0x40	; 64
     be4:	bc 01       	movw	r22, r24
     be6:	cd 01       	movw	r24, r26
     be8:	50 d3       	rcall	.+1696   	; 0x128a <__gesf2>
     bea:	18 16       	cp	r1, r24
     bec:	44 f4       	brge	.+16     	; 0xbfe <dummyData+0x100>
		massFlow.f = 0;
     bee:	10 92 11 02 	sts	0x0211, r1	; 0x800211 <massFlow>
     bf2:	10 92 12 02 	sts	0x0212, r1	; 0x800212 <massFlow+0x1>
     bf6:	10 92 13 02 	sts	0x0213, r1	; 0x800213 <massFlow+0x2>
     bfa:	10 92 14 02 	sts	0x0214, r1	; 0x800214 <massFlow+0x3>
		
	// fifth the glow plug state
	if (Hall_effect > 50000)
     bfe:	80 91 0e 02 	lds	r24, 0x020E	; 0x80020e <Hall_effect>
     c02:	90 91 0f 02 	lds	r25, 0x020F	; 0x80020f <Hall_effect+0x1>
     c06:	81 35       	cpi	r24, 0x51	; 81
     c08:	93 4c       	sbci	r25, 0xC3	; 195
     c0a:	20 f0       	brcs	.+8      	; 0xc14 <dummyData+0x116>
		glow_plug = 1;
     c0c:	81 e0       	ldi	r24, 0x01	; 1
     c0e:	80 93 10 02 	sts	0x0210, r24	; 0x800210 <glow_plug>
     c12:	02 c0       	rjmp	.+4      	; 0xc18 <dummyData+0x11a>
	else
		glow_plug = 0;
     c14:	10 92 10 02 	sts	0x0210, r1	; 0x800210 <glow_plug>
		
	// Sixth, the ECU temperature
	ECU_temp += 5.43;
     c18:	80 91 38 02 	lds	r24, 0x0238	; 0x800238 <ECU_temp>
     c1c:	90 91 39 02 	lds	r25, 0x0239	; 0x800239 <ECU_temp+0x1>
     c20:	a0 91 3a 02 	lds	r26, 0x023A	; 0x80023a <ECU_temp+0x2>
     c24:	b0 91 3b 02 	lds	r27, 0x023B	; 0x80023b <ECU_temp+0x3>
     c28:	2f e8       	ldi	r18, 0x8F	; 143
     c2a:	32 ec       	ldi	r19, 0xC2	; 194
     c2c:	4d ea       	ldi	r20, 0xAD	; 173
     c2e:	50 e4       	ldi	r21, 0x40	; 64
     c30:	bc 01       	movw	r22, r24
     c32:	cd 01       	movw	r24, r26
     c34:	0d d2       	rcall	.+1050   	; 0x1050 <__addsf3>
     c36:	dc 01       	movw	r26, r24
     c38:	cb 01       	movw	r24, r22
     c3a:	80 93 38 02 	sts	0x0238, r24	; 0x800238 <ECU_temp>
     c3e:	90 93 39 02 	sts	0x0239, r25	; 0x800239 <ECU_temp+0x1>
     c42:	a0 93 3a 02 	sts	0x023A, r26	; 0x80023a <ECU_temp+0x2>
     c46:	b0 93 3b 02 	sts	0x023B, r27	; 0x80023b <ECU_temp+0x3>
	if (ECU_temp > 169)
     c4a:	80 91 38 02 	lds	r24, 0x0238	; 0x800238 <ECU_temp>
     c4e:	90 91 39 02 	lds	r25, 0x0239	; 0x800239 <ECU_temp+0x1>
     c52:	a0 91 3a 02 	lds	r26, 0x023A	; 0x80023a <ECU_temp+0x2>
     c56:	b0 91 3b 02 	lds	r27, 0x023B	; 0x80023b <ECU_temp+0x3>
     c5a:	20 e0       	ldi	r18, 0x00	; 0
     c5c:	30 e0       	ldi	r19, 0x00	; 0
     c5e:	49 e2       	ldi	r20, 0x29	; 41
     c60:	53 e4       	ldi	r21, 0x43	; 67
     c62:	bc 01       	movw	r22, r24
     c64:	cd 01       	movw	r24, r26
     c66:	11 d3       	rcall	.+1570   	; 0x128a <__gesf2>
     c68:	18 16       	cp	r1, r24
     c6a:	64 f4       	brge	.+24     	; 0xc84 <dummyData+0x186>
		ECU_temp = 0.69;
     c6c:	87 ed       	ldi	r24, 0xD7	; 215
     c6e:	93 ea       	ldi	r25, 0xA3	; 163
     c70:	a0 e3       	ldi	r26, 0x30	; 48
     c72:	bf e3       	ldi	r27, 0x3F	; 63
     c74:	80 93 38 02 	sts	0x0238, r24	; 0x800238 <ECU_temp>
     c78:	90 93 39 02 	sts	0x0239, r25	; 0x800239 <ECU_temp+0x1>
     c7c:	a0 93 3a 02 	sts	0x023A, r26	; 0x80023a <ECU_temp+0x2>
     c80:	b0 93 3b 02 	sts	0x023B, r27	; 0x80023b <ECU_temp+0x3>
	
	// sixth need the operational mode
	opMode = 5;  // this means that the engine is not doing anything
     c84:	85 e0       	ldi	r24, 0x05	; 5
     c86:	80 93 0b 02 	sts	0x020B, r24	; 0x80020b <opMode>
}
     c8a:	00 00       	nop
     c8c:	df 91       	pop	r29
     c8e:	cf 91       	pop	r28
     c90:	08 95       	ret

00000c92 <waitMS>:

void waitMS(uint16_t msec)
{
     c92:	cf 93       	push	r28
     c94:	df 93       	push	r29
     c96:	00 d0       	rcall	.+0      	; 0xc98 <waitMS+0x6>
     c98:	1f 92       	push	r1
     c9a:	cd b7       	in	r28, 0x3d	; 61
     c9c:	de b7       	in	r29, 0x3e	; 62
     c9e:	9c 83       	std	Y+4, r25	; 0x04
     ca0:	8b 83       	std	Y+3, r24	; 0x03
	// This function utilizes timer 0 and a sequence of delay loops to delay for the desired time
	TCNT0 = 5;
     ca2:	86 e4       	ldi	r24, 0x46	; 70
     ca4:	90 e0       	ldi	r25, 0x00	; 0
     ca6:	25 e0       	ldi	r18, 0x05	; 5
     ca8:	fc 01       	movw	r30, r24
     caa:	20 83       	st	Z, r18
	// begin the timer
	TCCR0B |= (1 << CS01) | (1 << CS00);       // this will start the timer with a prescalar of 64
     cac:	85 e4       	ldi	r24, 0x45	; 69
     cae:	90 e0       	ldi	r25, 0x00	; 0
     cb0:	25 e4       	ldi	r18, 0x45	; 69
     cb2:	30 e0       	ldi	r19, 0x00	; 0
     cb4:	f9 01       	movw	r30, r18
     cb6:	20 81       	ld	r18, Z
     cb8:	23 60       	ori	r18, 0x03	; 3
     cba:	fc 01       	movw	r30, r24
     cbc:	20 83       	st	Z, r18
	for (uint16_t i = 0; i < msec; i++){
     cbe:	1a 82       	std	Y+2, r1	; 0x02
     cc0:	19 82       	std	Y+1, r1	; 0x01
     cc2:	19 c0       	rjmp	.+50     	; 0xcf6 <waitMS+0x64>
		while(bit_is_clear(TIFR0, TOV0));
     cc4:	00 00       	nop
     cc6:	85 e3       	ldi	r24, 0x35	; 53
     cc8:	90 e0       	ldi	r25, 0x00	; 0
     cca:	fc 01       	movw	r30, r24
     ccc:	80 81       	ld	r24, Z
     cce:	88 2f       	mov	r24, r24
     cd0:	90 e0       	ldi	r25, 0x00	; 0
     cd2:	81 70       	andi	r24, 0x01	; 1
     cd4:	99 27       	eor	r25, r25
     cd6:	89 2b       	or	r24, r25
     cd8:	b1 f3       	breq	.-20     	; 0xcc6 <waitMS+0x34>
		TIFR0 |= (1 << TOV0);                  // Clear the overflow flag by writing a 1 to it
     cda:	85 e3       	ldi	r24, 0x35	; 53
     cdc:	90 e0       	ldi	r25, 0x00	; 0
     cde:	25 e3       	ldi	r18, 0x35	; 53
     ce0:	30 e0       	ldi	r19, 0x00	; 0
     ce2:	f9 01       	movw	r30, r18
     ce4:	20 81       	ld	r18, Z
     ce6:	21 60       	ori	r18, 0x01	; 1
     ce8:	fc 01       	movw	r30, r24
     cea:	20 83       	st	Z, r18
{
	// This function utilizes timer 0 and a sequence of delay loops to delay for the desired time
	TCNT0 = 5;
	// begin the timer
	TCCR0B |= (1 << CS01) | (1 << CS00);       // this will start the timer with a prescalar of 64
	for (uint16_t i = 0; i < msec; i++){
     cec:	89 81       	ldd	r24, Y+1	; 0x01
     cee:	9a 81       	ldd	r25, Y+2	; 0x02
     cf0:	01 96       	adiw	r24, 0x01	; 1
     cf2:	9a 83       	std	Y+2, r25	; 0x02
     cf4:	89 83       	std	Y+1, r24	; 0x01
     cf6:	29 81       	ldd	r18, Y+1	; 0x01
     cf8:	3a 81       	ldd	r19, Y+2	; 0x02
     cfa:	8b 81       	ldd	r24, Y+3	; 0x03
     cfc:	9c 81       	ldd	r25, Y+4	; 0x04
     cfe:	28 17       	cp	r18, r24
     d00:	39 07       	cpc	r19, r25
     d02:	00 f3       	brcs	.-64     	; 0xcc4 <waitMS+0x32>
		while(bit_is_clear(TIFR0, TOV0));
		TIFR0 |= (1 << TOV0);                  // Clear the overflow flag by writing a 1 to it
	}
	assign_bit(&TCCR0B, CS01, 0);
     d04:	40 e0       	ldi	r20, 0x00	; 0
     d06:	61 e0       	ldi	r22, 0x01	; 1
     d08:	85 e4       	ldi	r24, 0x45	; 69
     d0a:	90 e0       	ldi	r25, 0x00	; 0
     d0c:	94 dd       	rcall	.-1240   	; 0x836 <assign_bit>
	assign_bit(&TCCR0B, CS00, 0);              // Turn off the timer
     d0e:	40 e0       	ldi	r20, 0x00	; 0
     d10:	60 e0       	ldi	r22, 0x00	; 0
     d12:	85 e4       	ldi	r24, 0x45	; 69
     d14:	90 e0       	ldi	r25, 0x00	; 0
     d16:	8f dd       	rcall	.-1250   	; 0x836 <assign_bit>
     d18:	00 00       	nop
     d1a:	0f 90       	pop	r0
     d1c:	0f 90       	pop	r0
     d1e:	0f 90       	pop	r0
     d20:	0f 90       	pop	r0
     d22:	df 91       	pop	r29
     d24:	cf 91       	pop	r28
     d26:	08 95       	ret

00000d28 <shutdown>:
 *
 *  @param void
 *  @return void
 */
void shutdown(void)
{
     d28:	cf 93       	push	r28
     d2a:	df 93       	push	r29
     d2c:	cd b7       	in	r28, 0x3d	; 61
     d2e:	de b7       	in	r29, 0x3e	; 62
	ESBtransmit[0] = 'S';
     d30:	83 e5       	ldi	r24, 0x53	; 83
     d32:	80 93 15 02 	sts	0x0215, r24	; 0x800215 <ESBtransmit>
	while (ESBreceive[0] != 'K'){                    // Loop until the ESB says K
     d36:	05 c0       	rjmp	.+10     	; 0xd42 <shutdown+0x1a>
		sendToESB(1);
     d38:	81 e0       	ldi	r24, 0x01	; 1
     d3a:	e9 d9       	rcall	.-3118   	; 0x10e <sendToESB>
		waitMS(5);
     d3c:	85 e0       	ldi	r24, 0x05	; 5
     d3e:	90 e0       	ldi	r25, 0x00	; 0
     d40:	a8 df       	rcall	.-176    	; 0xc92 <waitMS>
 *  @return void
 */
void shutdown(void)
{
	ESBtransmit[0] = 'S';
	while (ESBreceive[0] != 'K'){                    // Loop until the ESB says K
     d42:	80 91 29 02 	lds	r24, 0x0229	; 0x800229 <ESBreceive>
     d46:	8b 34       	cpi	r24, 0x4B	; 75
     d48:	b9 f7       	brne	.-18     	; 0xd38 <shutdown+0x10>
		sendToESB(1);
		waitMS(5);
	}
	ESBreceive[0] = 0;                              // clear out the first char so that it actually transmits
     d4a:	10 92 29 02 	sts	0x0229, r1	; 0x800229 <ESBreceive>
}
     d4e:	00 00       	nop
     d50:	df 91       	pop	r29
     d52:	cf 91       	pop	r28
     d54:	08 95       	ret

00000d56 <startup>:
 *
 *  @param void
 *  @return void
 */
void startup(void)
{
     d56:	cf 93       	push	r28
     d58:	df 93       	push	r29
     d5a:	cd b7       	in	r28, 0x3d	; 61
     d5c:	de b7       	in	r29, 0x3e	; 62
	ESBtransmit[0] = 'r';
     d5e:	82 e7       	ldi	r24, 0x72	; 114
     d60:	80 93 15 02 	sts	0x0215, r24	; 0x800215 <ESBtransmit>
	while (ESBreceive[0] != 'K'){
     d64:	05 c0       	rjmp	.+10     	; 0xd70 <startup+0x1a>
		sendToESB(1);
     d66:	81 e0       	ldi	r24, 0x01	; 1
     d68:	d2 d9       	rcall	.-3164   	; 0x10e <sendToESB>
		waitMS(5);   
     d6a:	85 e0       	ldi	r24, 0x05	; 5
     d6c:	90 e0       	ldi	r25, 0x00	; 0
     d6e:	91 df       	rcall	.-222    	; 0xc92 <waitMS>
 *  @return void
 */
void startup(void)
{
	ESBtransmit[0] = 'r';
	while (ESBreceive[0] != 'K'){
     d70:	80 91 29 02 	lds	r24, 0x0229	; 0x800229 <ESBreceive>
     d74:	8b 34       	cpi	r24, 0x4B	; 75
     d76:	b9 f7       	brne	.-18     	; 0xd66 <startup+0x10>
		sendToESB(1);
		waitMS(5);   
	}
	ESBreceive[0] = 0;              // Change this character so I actually have to receive it in the future	
     d78:	10 92 29 02 	sts	0x0229, r1	; 0x800229 <ESBreceive>
	
}
     d7c:	00 00       	nop
     d7e:	df 91       	pop	r29
     d80:	cf 91       	pop	r28
     d82:	08 95       	ret

00000d84 <throttle>:
 *
 *  @param void
 *  @return void
 */
void throttle(void)
{
     d84:	cf 93       	push	r28
     d86:	df 93       	push	r29
     d88:	cd b7       	in	r28, 0x3d	; 61
     d8a:	de b7       	in	r29, 0x3e	; 62
	ESBtransmit[0] = 't';
     d8c:	84 e7       	ldi	r24, 0x74	; 116
     d8e:	80 93 15 02 	sts	0x0215, r24	; 0x800215 <ESBtransmit>
	ESBtransmit[1] = throttle_per;
     d92:	80 91 3d 02 	lds	r24, 0x023D	; 0x80023d <throttle_per>
     d96:	80 93 16 02 	sts	0x0216, r24	; 0x800216 <ESBtransmit+0x1>
	while (ESBreceive[0] != 'K'){
     d9a:	05 c0       	rjmp	.+10     	; 0xda6 <throttle+0x22>
		sendToESB(2);
     d9c:	82 e0       	ldi	r24, 0x02	; 2
     d9e:	b7 d9       	rcall	.-3218   	; 0x10e <sendToESB>
		waitMS(5);
     da0:	85 e0       	ldi	r24, 0x05	; 5
     da2:	90 e0       	ldi	r25, 0x00	; 0
     da4:	76 df       	rcall	.-276    	; 0xc92 <waitMS>
 */
void throttle(void)
{
	ESBtransmit[0] = 't';
	ESBtransmit[1] = throttle_per;
	while (ESBreceive[0] != 'K'){
     da6:	80 91 29 02 	lds	r24, 0x0229	; 0x800229 <ESBreceive>
     daa:	8b 34       	cpi	r24, 0x4B	; 75
     dac:	b9 f7       	brne	.-18     	; 0xd9c <throttle+0x18>
		sendToESB(2);
		waitMS(5);
	}
	ESBreceive[0] = 0;                   // clear out the first char so that it actually transmits
     dae:	10 92 29 02 	sts	0x0229, r1	; 0x800229 <ESBreceive>
}
     db2:	00 00       	nop
     db4:	df 91       	pop	r29
     db6:	cf 91       	pop	r28
     db8:	08 95       	ret

00000dba <main>:

#include <avr/io.h>
#include "ECU_funcs.h"

int main(void)
{
     dba:	cf 93       	push	r28
     dbc:	df 93       	push	r29
     dbe:	cd b7       	in	r28, 0x3d	; 61
     dc0:	de b7       	in	r29, 0x3e	; 62
	//waitMS(4000);                   // For debugging purposes only REMOVE!
	if (HCU_present){
		pre_Initial();       // This will have the waiting until the HCU tells the ECU to wake up
	}
	Initial();
     dc2:	41 d0       	rcall	.+130    	; 0xe46 <Initial>
	while (1) 
    {
		if (!connected){
     dc4:	80 91 26 02 	lds	r24, 0x0226	; 0x800226 <connected>
     dc8:	88 23       	and	r24, r24
			ESB_Connect();
     dca:	09 f4       	brne	.+2      	; 0xdce <main+0x14>
		}

		//batVoltage();       // This is the battery voltage measurement function
		measureFlow();      // This is the flow calculation function
     dcc:	ce d9       	rcall	.-3172   	; 0x16a <ESB_Connect>
     dce:	d3 dc       	rcall	.-1626   	; 0x776 <measureFlow>
		//readTempSensor();
		massFlow.f += 0.05;
     dd0:	80 91 11 02 	lds	r24, 0x0211	; 0x800211 <massFlow>
     dd4:	90 91 12 02 	lds	r25, 0x0212	; 0x800212 <massFlow+0x1>
     dd8:	a0 91 13 02 	lds	r26, 0x0213	; 0x800213 <massFlow+0x2>
     ddc:	b0 91 14 02 	lds	r27, 0x0214	; 0x800214 <massFlow+0x3>
     de0:	2d ec       	ldi	r18, 0xCD	; 205
     de2:	3c ec       	ldi	r19, 0xCC	; 204
     de4:	4c e4       	ldi	r20, 0x4C	; 76
     de6:	5d e3       	ldi	r21, 0x3D	; 61
     de8:	bc 01       	movw	r22, r24
     dea:	cd 01       	movw	r24, r26
     dec:	31 d1       	rcall	.+610    	; 0x1050 <__addsf3>
     dee:	dc 01       	movw	r26, r24
     df0:	cb 01       	movw	r24, r22
     df2:	80 93 11 02 	sts	0x0211, r24	; 0x800211 <massFlow>
     df6:	90 93 12 02 	sts	0x0212, r25	; 0x800212 <massFlow+0x1>
     dfa:	a0 93 13 02 	sts	0x0213, r26	; 0x800213 <massFlow+0x2>
     dfe:	b0 93 14 02 	sts	0x0214, r27	; 0x800214 <massFlow+0x3>
		if (massFlow.f > 4.8) {
     e02:	80 91 11 02 	lds	r24, 0x0211	; 0x800211 <massFlow>
     e06:	90 91 12 02 	lds	r25, 0x0212	; 0x800212 <massFlow+0x1>
     e0a:	a0 91 13 02 	lds	r26, 0x0213	; 0x800213 <massFlow+0x2>
     e0e:	b0 91 14 02 	lds	r27, 0x0214	; 0x800214 <massFlow+0x3>
     e12:	2a e9       	ldi	r18, 0x9A	; 154
     e14:	39 e9       	ldi	r19, 0x99	; 153
     e16:	49 e9       	ldi	r20, 0x99	; 153
     e18:	50 e4       	ldi	r21, 0x40	; 64
     e1a:	bc 01       	movw	r22, r24
     e1c:	cd 01       	movw	r24, r26
     e1e:	35 d2       	rcall	.+1130   	; 0x128a <__gesf2>
     e20:	18 16       	cp	r1, r24
     e22:	44 f4       	brge	.+16     	; 0xe34 <main+0x7a>
			massFlow.f = 0;
     e24:	10 92 11 02 	sts	0x0211, r1	; 0x800211 <massFlow>
     e28:	10 92 12 02 	sts	0x0212, r1	; 0x800212 <massFlow+0x1>
     e2c:	10 92 13 02 	sts	0x0213, r1	; 0x800213 <massFlow+0x2>
     e30:	10 92 14 02 	sts	0x0214, r1	; 0x800214 <massFlow+0x3>
		}
		
		if (connected){
     e34:	80 91 26 02 	lds	r24, 0x0226	; 0x800226 <connected>
			packageMessage();
     e38:	88 23       	and	r24, r24
			sendToESB(flowData);           // Send the flow data to the ESB
     e3a:	19 f0       	breq	.+6      	; 0xe42 <main+0x88>
     e3c:	64 dc       	rcall	.-1848   	; 0x706 <packageMessage>
     e3e:	85 e0       	ldi	r24, 0x05	; 5
		}
		
		sendToLaptop();
     e40:	66 d9       	rcall	.-3380   	; 0x10e <sendToESB>
     e42:	e6 d9       	rcall	.-3124   	; 0x210 <sendToLaptop>
		
    }
     e44:	bf cf       	rjmp	.-130    	; 0xdc4 <main+0xa>

00000e46 <Initial>:
 * 
 *  @param void
 *  @return void
 */
void Initial(void)
{
     e46:	cf 93       	push	r28
     e48:	df 93       	push	r29
     e4a:	00 d0       	rcall	.+0      	; 0xe4c <Initial+0x6>
     e4c:	1f 92       	push	r1
     e4e:	cd b7       	in	r28, 0x3d	; 61
     e50:	de b7       	in	r29, 0x3e	; 62
	////////////////////////// Initialize Port Configuration ////////////////////////////////
	DDRD |= (1 << XCK1);          // Enable the SPI output pin for output.  This puts the ECU in master mode for SPI
     e52:	8a e2       	ldi	r24, 0x2A	; 42
     e54:	90 e0       	ldi	r25, 0x00	; 0
     e56:	2a e2       	ldi	r18, 0x2A	; 42
     e58:	30 e0       	ldi	r19, 0x00	; 0
     e5a:	f9 01       	movw	r30, r18
     e5c:	20 81       	ld	r18, Z
     e5e:	20 62       	ori	r18, 0x20	; 32
     e60:	fc 01       	movw	r30, r24
     e62:	20 83       	st	Z, r18
	
	//////////////////// Initialize the Asynchronous Communication //////////////////////////
	UBRR0 = 12;     // With a 16 MHz clock this will make a baud rate of 76800 (error of 0.16%)
     e64:	84 ec       	ldi	r24, 0xC4	; 196
     e66:	90 e0       	ldi	r25, 0x00	; 0
     e68:	2c e0       	ldi	r18, 0x0C	; 12
     e6a:	30 e0       	ldi	r19, 0x00	; 0
     e6c:	fc 01       	movw	r30, r24
     e6e:	31 83       	std	Z+1, r19	; 0x01
     e70:	20 83       	st	Z, r18
	
	// The next things that need to be set are as follows (reference page 220 in datasheet)
	// 1) Enable receive interrupts
	// 2) Enable receiver
	// 3) Enable transmitter
	UCSR0B = (1 << RXCIE0) | (1 << RXEN0) | (1 << TXEN0);
     e72:	81 ec       	ldi	r24, 0xC1	; 193
     e74:	90 e0       	ldi	r25, 0x00	; 0
     e76:	28 e9       	ldi	r18, 0x98	; 152
     e78:	fc 01       	movw	r30, r24
     e7a:	20 83       	st	Z, r18
	// I want the following things
	// 1) Asynchronous USART
	// 2) No Parity
	// 3) 1 Stop bit
	// 4) 8 bit character size
	UCSR0C = (1 << UCSZ01) | (1 << UCSZ00);   // Now the USART should be ready to receive
     e7c:	82 ec       	ldi	r24, 0xC2	; 194
     e7e:	90 e0       	ldi	r25, 0x00	; 0
     e80:	26 e0       	ldi	r18, 0x06	; 6
     e82:	fc 01       	movw	r30, r24
     e84:	20 83       	st	Z, r18
		
	/////////////////////////// Initialize USART with ESB //////////////////////////////////
	
	UBRR1 = 12;     // With a 16 MHz clock this will make a baud rate of 76800 (error of 0.16%)
     e86:	8c ec       	ldi	r24, 0xCC	; 204
     e88:	90 e0       	ldi	r25, 0x00	; 0
     e8a:	2c e0       	ldi	r18, 0x0C	; 12
     e8c:	30 e0       	ldi	r19, 0x00	; 0
     e8e:	fc 01       	movw	r30, r24
     e90:	31 83       	std	Z+1, r19	; 0x01
     e92:	20 83       	st	Z, r18
	//  This is the same process as with communication with the GUI
	
	UCSR1B = (1 << RXCIE1) | (1 << RXEN1) | (1 << TXEN1);
     e94:	89 ec       	ldi	r24, 0xC9	; 201
     e96:	90 e0       	ldi	r25, 0x00	; 0
     e98:	28 e9       	ldi	r18, 0x98	; 152
     e9a:	fc 01       	movw	r30, r24
     e9c:	20 83       	st	Z, r18
	// I want the following things
	// 1) Asynchronous USART
	// 2) No Parity
	// 3) 1 Stop bit
	// 4) 8 bit character size
	UCSR1C = (1 << UCSZ11) | (1 << UCSZ10);   // Now the USART should be ready to receive
     e9e:	8a ec       	ldi	r24, 0xCA	; 202
     ea0:	90 e0       	ldi	r25, 0x00	; 0
     ea2:	26 e0       	ldi	r18, 0x06	; 6
     ea4:	fc 01       	movw	r30, r24
     ea6:	20 83       	st	Z, r18
	newCommand_ESB = 1;
     ea8:	81 e0       	ldi	r24, 0x01	; 1
     eaa:	80 93 25 02 	sts	0x0225, r24	; 0x800225 <newCommand_ESB>
	ESBreceiveCount = 0;
     eae:	10 92 3c 02 	sts	0x023C, r1	; 0x80023c <ESBreceiveCount>
	waitMS(50);
     eb2:	82 e3       	ldi	r24, 0x32	; 50
     eb4:	90 e0       	ldi	r25, 0x00	; 0
     eb6:	ed de       	rcall	.-550    	; 0xc92 <waitMS>
	while (!connected){     // wait until connected with the ESB
		ESB_Connect();
     eb8:	04 c0       	rjmp	.+8      	; 0xec2 <Initial+0x7c>
     eba:	57 d9       	rcall	.-3410   	; 0x16a <ESB_Connect>
		waitMS(10);
     ebc:	8a e0       	ldi	r24, 0x0A	; 10
     ebe:	90 e0       	ldi	r25, 0x00	; 0
     ec0:	e8 de       	rcall	.-560    	; 0xc92 <waitMS>
	// 4) 8 bit character size
	UCSR1C = (1 << UCSZ11) | (1 << UCSZ10);   // Now the USART should be ready to receive
	newCommand_ESB = 1;
	ESBreceiveCount = 0;
	waitMS(50);
	while (!connected){     // wait until connected with the ESB
     ec2:	80 91 26 02 	lds	r24, 0x0226	; 0x800226 <connected>
     ec6:	88 23       	and	r24, r24
     ec8:	c1 f3       	breq	.-16     	; 0xeba <Initial+0x74>
	}
				
	////////////////// Initialize I2C with temperature sensors ///////////////////////////
	
	// First set the bit rate and prescalar registers for a clock rate of 200 kHz (this is right in the middle of the sensor's range)
	DDRD |= (1 << PD0);     // this will make the clock line an output
     eca:	8a e2       	ldi	r24, 0x2A	; 42
     ecc:	90 e0       	ldi	r25, 0x00	; 0
     ece:	2a e2       	ldi	r18, 0x2A	; 42
     ed0:	30 e0       	ldi	r19, 0x00	; 0
     ed2:	f9 01       	movw	r30, r18
     ed4:	20 81       	ld	r18, Z
     ed6:	21 60       	ori	r18, 0x01	; 1
     ed8:	fc 01       	movw	r30, r24
     eda:	20 83       	st	Z, r18
	TWBR = 8;  // Bit rate register
     edc:	88 eb       	ldi	r24, 0xB8	; 184
     ede:	90 e0       	ldi	r25, 0x00	; 0
     ee0:	28 e0       	ldi	r18, 0x08	; 8
     ee2:	fc 01       	movw	r30, r24
     ee4:	20 83       	st	Z, r18
	assign_bit(&TWSR, TWPS0, 0);
     ee6:	40 e0       	ldi	r20, 0x00	; 0
     ee8:	60 e0       	ldi	r22, 0x00	; 0
     eea:	89 eb       	ldi	r24, 0xB9	; 185
     eec:	90 e0       	ldi	r25, 0x00	; 0
     eee:	a3 dc       	rcall	.-1722   	; 0x836 <assign_bit>
	assign_bit(&TWSR, TWPS1, 0);   // this makes a prescalar of 1
     ef0:	40 e0       	ldi	r20, 0x00	; 0
     ef2:	61 e0       	ldi	r22, 0x01	; 1
     ef4:	89 eb       	ldi	r24, 0xB9	; 185
     ef6:	90 e0       	ldi	r25, 0x00	; 0
     ef8:	9e dc       	rcall	.-1732   	; 0x836 <assign_bit>
	// Probably don't need to make these assignments but I am just making it explicit
	
	// Second enable the interrupts for the Two Wire Interface
	TWCR = (1<<TWEN);   // this will clear the interrupt flag and enable the TWI lines.
     efa:	8c eb       	ldi	r24, 0xBC	; 188
     efc:	90 e0       	ldi	r25, 0x00	; 0
     efe:	24 e0       	ldi	r18, 0x04	; 4
     f00:	fc 01       	movw	r30, r24
     f02:	20 83       	st	Z, r18
	// 2) The channel for ADMUX needs to be channel 0
	// 3) The ADC needs to be enabled without interrupts
	// 4) Division factor for the ADC needs to be set to 128 to keep the input clock 
	//    frequency between 50kHz and 200kHz
	
	ADMUX = (1 << REFS1) | (1 << REFS0);
     f04:	8c e7       	ldi	r24, 0x7C	; 124
     f06:	90 e0       	ldi	r25, 0x00	; 0
     f08:	20 ec       	ldi	r18, 0xC0	; 192
     f0a:	fc 01       	movw	r30, r24
     f0c:	20 83       	st	Z, r18
	ADCSRA = (1 << ADEN) | (1 << ADPS0) | (1 << ADPS1) | (1 << ADPS2);
     f0e:	8a e7       	ldi	r24, 0x7A	; 122
     f10:	90 e0       	ldi	r25, 0x00	; 0
     f12:	27 e8       	ldi	r18, 0x87	; 135
     f14:	fc 01       	movw	r30, r24
     f16:	20 83       	st	Z, r18
	batChannel = 0;
     f18:	10 92 09 02 	sts	0x0209, r1	; 0x800209 <batChannel>


	/////////////////////// Enable global interrupts //////////////////////////////////
	sei();
     f1c:	78 94       	sei
	
	// The next things that need to be set are as follows
	// 1) Timer 1 needs a prescalar of 64 and timer register of 3036    for time of 0.25 sec, for regulating communication with the ESB
	// 2) Timer 3 needs a prescalar of 64 and timer register if 3036
	// 3) Timer 4 and 5 needs to have interrupts enabled and create a 1 second timer
	TCNT1 = 3036;
     f1e:	84 e8       	ldi	r24, 0x84	; 132
     f20:	90 e0       	ldi	r25, 0x00	; 0
     f22:	2c ed       	ldi	r18, 0xDC	; 220
     f24:	3b e0       	ldi	r19, 0x0B	; 11
     f26:	fc 01       	movw	r30, r24
     f28:	31 83       	std	Z+1, r19	; 0x01
     f2a:	20 83       	st	Z, r18
	TCNT3 = FlowTime;             // The flow meter timer does not need interrupts since it will be polled
     f2c:	84 e9       	ldi	r24, 0x94	; 148
     f2e:	90 e0       	ldi	r25, 0x00	; 0
     f30:	24 e7       	ldi	r18, 0x74	; 116
     f32:	3e e0       	ldi	r19, 0x0E	; 14
     f34:	fc 01       	movw	r30, r24
     f36:	31 83       	std	Z+1, r19	; 0x01
     f38:	20 83       	st	Z, r18
	
	// The TIFR1 register and TOV1 flag are the overflow flag for timer1
	TCCR1B = (1 << CS11) | (1 << CS10);    // start timer 1 with prescalar of 64
     f3a:	81 e8       	ldi	r24, 0x81	; 129
     f3c:	90 e0       	ldi	r25, 0x00	; 0
     f3e:	23 e0       	ldi	r18, 0x03	; 3
     f40:	fc 01       	movw	r30, r24
     f42:	20 83       	st	Z, r18
	TCNT4 = 40536;
     f44:	84 ea       	ldi	r24, 0xA4	; 164
     f46:	90 e0       	ldi	r25, 0x00	; 0
     f48:	28 e5       	ldi	r18, 0x58	; 88
     f4a:	3e e9       	ldi	r19, 0x9E	; 158
     f4c:	fc 01       	movw	r30, r24
     f4e:	31 83       	std	Z+1, r19	; 0x01
     f50:	20 83       	st	Z, r18
	TCNT5 = 40536;
     f52:	84 e2       	ldi	r24, 0x24	; 36
     f54:	91 e0       	ldi	r25, 0x01	; 1
     f56:	28 e5       	ldi	r18, 0x58	; 88
     f58:	3e e9       	ldi	r19, 0x9E	; 158
     f5a:	fc 01       	movw	r30, r24
     f5c:	31 83       	std	Z+1, r19	; 0x01
     f5e:	20 83       	st	Z, r18
	TIMSK4 = (1 << TOIE4);     // enable overflow interrupts for the GUI communication timer
     f60:	82 e7       	ldi	r24, 0x72	; 114
     f62:	90 e0       	ldi	r25, 0x00	; 0
     f64:	21 e0       	ldi	r18, 0x01	; 1
     f66:	fc 01       	movw	r30, r24
     f68:	20 83       	st	Z, r18
	TIMSK5 = (1 << TOIE5);     // enable overflow interrupts for the ESB communication timer
     f6a:	83 e7       	ldi	r24, 0x73	; 115
     f6c:	90 e0       	ldi	r25, 0x00	; 0
     f6e:	21 e0       	ldi	r18, 0x01	; 1
     f70:	fc 01       	movw	r30, r24
     f72:	20 83       	st	Z, r18
	TCNT5 = ESB_timer_val;     // loads Timer 5 with a value that will make a 1 second timer
     f74:	84 e2       	ldi	r24, 0x24	; 36
     f76:	91 e0       	ldi	r25, 0x01	; 1
     f78:	2c ed       	ldi	r18, 0xDC	; 220
     f7a:	3b e0       	ldi	r19, 0x0B	; 11
     f7c:	fc 01       	movw	r30, r24
     f7e:	31 83       	std	Z+1, r19	; 0x01
     f80:	20 83       	st	Z, r18

	
	// Begin the first conversion for the ADC
	ADCSRA |= (1 << ADSC);
     f82:	8a e7       	ldi	r24, 0x7A	; 122
     f84:	90 e0       	ldi	r25, 0x00	; 0
     f86:	2a e7       	ldi	r18, 0x7A	; 122
     f88:	30 e0       	ldi	r19, 0x00	; 0
     f8a:	f9 01       	movw	r30, r18
     f8c:	20 81       	ld	r18, Z
     f8e:	20 64       	ori	r18, 0x40	; 64
     f90:	fc 01       	movw	r30, r24
     f92:	20 83       	st	Z, r18
	
	massFlow.f = 0.0;
     f94:	10 92 11 02 	sts	0x0211, r1	; 0x800211 <massFlow>
     f98:	10 92 12 02 	sts	0x0212, r1	; 0x800212 <massFlow+0x1>
     f9c:	10 92 13 02 	sts	0x0213, r1	; 0x800213 <massFlow+0x2>
     fa0:	10 92 14 02 	sts	0x0214, r1	; 0x800214 <massFlow+0x3>
	 
	// Now configure the external interrupts for the Flow meters
	EICRA = (1 << ISC20) | (1 << ISC21);     // This will enable rising edge interrupts on INT2, see page 110 in datasheet
     fa4:	89 e6       	ldi	r24, 0x69	; 105
     fa6:	90 e0       	ldi	r25, 0x00	; 0
     fa8:	20 e3       	ldi	r18, 0x30	; 48
     faa:	fc 01       	movw	r30, r24
	assign_bit(&DDRD, INT2, 0);              // Configure the PD2 pin as an input so that it can receive the signals
     fac:	20 83       	st	Z, r18
     fae:	40 e0       	ldi	r20, 0x00	; 0
     fb0:	62 e0       	ldi	r22, 0x02	; 2
     fb2:	8a e2       	ldi	r24, 0x2A	; 42
     fb4:	90 e0       	ldi	r25, 0x00	; 0
     fb6:	3f dc       	rcall	.-1922   	; 0x836 <assign_bit>
	 
	 
	// Now configure the global variables for the flow meter
	float pulse_flow = (density) * K_factor * max_time / 1000;   // number of pulses expected per g/sec
     fb8:	84 e0       	ldi	r24, 0x04	; 4
     fba:	9c e0       	ldi	r25, 0x0C	; 12
     fbc:	a4 e9       	ldi	r26, 0x94	; 148
     fbe:	b1 e4       	ldi	r27, 0x41	; 65
     fc0:	89 83       	std	Y+1, r24	; 0x01
     fc2:	9a 83       	std	Y+2, r25	; 0x02
     fc4:	ab 83       	std	Y+3, r26	; 0x03
     fc6:	bc 83       	std	Y+4, r27	; 0x04
	V_per_pulse = pump_m / pulse_flow;               // number of volts per pulse
     fc8:	29 81       	ldd	r18, Y+1	; 0x01
     fca:	3a 81       	ldd	r19, Y+2	; 0x02
     fcc:	4b 81       	ldd	r20, Y+3	; 0x03
     fce:	5c 81       	ldd	r21, Y+4	; 0x04
     fd0:	61 e7       	ldi	r22, 0x71	; 113
     fd2:	72 ee       	ldi	r23, 0xE2	; 226
     fd4:	83 ec       	ldi	r24, 0xC3	; 195
     fd6:	9e e3       	ldi	r25, 0x3E	; 62
     fd8:	9f d0       	rcall	.+318    	; 0x1118 <__divsf3>
     fda:	dc 01       	movw	r26, r24
     fdc:	cb 01       	movw	r24, r22
     fde:	80 93 33 02 	sts	0x0233, r24	; 0x800233 <V_per_pulse>
     fe2:	90 93 34 02 	sts	0x0234, r25	; 0x800234 <V_per_pulse+0x1>
     fe6:	a0 93 35 02 	sts	0x0235, r26	; 0x800235 <V_per_pulse+0x2>
     fea:	b0 93 36 02 	sts	0x0236, r27	; 0x800236 <V_per_pulse+0x3>
	opMode = 0;
     fee:	10 92 0b 02 	sts	0x020B, r1	; 0x80020b <opMode>
	overrideMode = 1;
     ff2:	81 e0       	ldi	r24, 0x01	; 1
     ff4:	80 93 0c 02 	sts	0x020C, r24	; 0x80020c <overrideMode>
	newCommand = 1;
     ff8:	81 e0       	ldi	r24, 0x01	; 1
     ffa:	80 93 1e 02 	sts	0x021E, r24	; 0x80021e <newCommand>
	
	// Initialize all of the data values to zero
	massFlow.f = 0;
     ffe:	10 92 11 02 	sts	0x0211, r1	; 0x800211 <massFlow>
    1002:	10 92 12 02 	sts	0x0212, r1	; 0x800212 <massFlow+0x1>
    1006:	10 92 13 02 	sts	0x0213, r1	; 0x800213 <massFlow+0x2>
    100a:	10 92 14 02 	sts	0x0214, r1	; 0x800214 <massFlow+0x3>
	Hall_effect = 0;
    100e:	10 92 0f 02 	sts	0x020F, r1	; 0x80020f <Hall_effect+0x1>
    1012:	10 92 0e 02 	sts	0x020E, r1	; 0x80020e <Hall_effect>
	EGT = 0;
    1016:	10 92 24 02 	sts	0x0224, r1	; 0x800224 <EGT+0x1>
    101a:	10 92 23 02 	sts	0x0223, r1	; 0x800223 <EGT>
	glow_plug = 0;
    101e:	10 92 10 02 	sts	0x0210, r1	; 0x800210 <glow_plug>
	voltageFinal = 7.5;
    1022:	80 e0       	ldi	r24, 0x00	; 0
    1024:	90 e0       	ldi	r25, 0x00	; 0
    1026:	a0 ef       	ldi	r26, 0xF0	; 240
    1028:	b0 e4       	ldi	r27, 0x40	; 64
    102a:	80 93 1f 02 	sts	0x021F, r24	; 0x80021f <voltageFinal>
    102e:	90 93 20 02 	sts	0x0220, r25	; 0x800220 <voltageFinal+0x1>
    1032:	a0 93 21 02 	sts	0x0221, r26	; 0x800221 <voltageFinal+0x2>
    1036:	b0 93 22 02 	sts	0x0222, r27	; 0x800222 <voltageFinal+0x3>
	repeatCount = 0;
    103a:	10 92 32 02 	sts	0x0232, r1	; 0x800232 <repeatCount>
	
	
}
    103e:	00 00       	nop
    1040:	0f 90       	pop	r0
    1042:	0f 90       	pop	r0
    1044:	0f 90       	pop	r0
    1046:	0f 90       	pop	r0
    1048:	df 91       	pop	r29
    104a:	cf 91       	pop	r28
    104c:	08 95       	ret

0000104e <__subsf3>:
    104e:	50 58       	subi	r21, 0x80	; 128

00001050 <__addsf3>:
    1050:	bb 27       	eor	r27, r27
    1052:	aa 27       	eor	r26, r26
    1054:	0e d0       	rcall	.+28     	; 0x1072 <__addsf3x>
    1056:	df c0       	rjmp	.+446    	; 0x1216 <__fp_round>
    1058:	d0 d0       	rcall	.+416    	; 0x11fa <__fp_pscA>
    105a:	30 f0       	brcs	.+12     	; 0x1068 <__addsf3+0x18>
    105c:	d5 d0       	rcall	.+426    	; 0x1208 <__fp_pscB>
    105e:	20 f0       	brcs	.+8      	; 0x1068 <__addsf3+0x18>
    1060:	31 f4       	brne	.+12     	; 0x106e <__addsf3+0x1e>
    1062:	9f 3f       	cpi	r25, 0xFF	; 255
    1064:	11 f4       	brne	.+4      	; 0x106a <__addsf3+0x1a>
    1066:	1e f4       	brtc	.+6      	; 0x106e <__addsf3+0x1e>
    1068:	c5 c0       	rjmp	.+394    	; 0x11f4 <__fp_nan>
    106a:	0e f4       	brtc	.+2      	; 0x106e <__addsf3+0x1e>
    106c:	e0 95       	com	r30
    106e:	e7 fb       	bst	r30, 7
    1070:	bb c0       	rjmp	.+374    	; 0x11e8 <__fp_inf>

00001072 <__addsf3x>:
    1072:	e9 2f       	mov	r30, r25
    1074:	e1 d0       	rcall	.+450    	; 0x1238 <__fp_split3>
    1076:	80 f3       	brcs	.-32     	; 0x1058 <__addsf3+0x8>
    1078:	ba 17       	cp	r27, r26
    107a:	62 07       	cpc	r22, r18
    107c:	73 07       	cpc	r23, r19
    107e:	84 07       	cpc	r24, r20
    1080:	95 07       	cpc	r25, r21
    1082:	18 f0       	brcs	.+6      	; 0x108a <__addsf3x+0x18>
    1084:	71 f4       	brne	.+28     	; 0x10a2 <__addsf3x+0x30>
    1086:	9e f5       	brtc	.+102    	; 0x10ee <__addsf3x+0x7c>
    1088:	f9 c0       	rjmp	.+498    	; 0x127c <__fp_zero>
    108a:	0e f4       	brtc	.+2      	; 0x108e <__addsf3x+0x1c>
    108c:	e0 95       	com	r30
    108e:	0b 2e       	mov	r0, r27
    1090:	ba 2f       	mov	r27, r26
    1092:	a0 2d       	mov	r26, r0
    1094:	0b 01       	movw	r0, r22
    1096:	b9 01       	movw	r22, r18
    1098:	90 01       	movw	r18, r0
    109a:	0c 01       	movw	r0, r24
    109c:	ca 01       	movw	r24, r20
    109e:	a0 01       	movw	r20, r0
    10a0:	11 24       	eor	r1, r1
    10a2:	ff 27       	eor	r31, r31
    10a4:	59 1b       	sub	r21, r25
    10a6:	99 f0       	breq	.+38     	; 0x10ce <__addsf3x+0x5c>
    10a8:	59 3f       	cpi	r21, 0xF9	; 249
    10aa:	50 f4       	brcc	.+20     	; 0x10c0 <__addsf3x+0x4e>
    10ac:	50 3e       	cpi	r21, 0xE0	; 224
    10ae:	68 f1       	brcs	.+90     	; 0x110a <__addsf3x+0x98>
    10b0:	1a 16       	cp	r1, r26
    10b2:	f0 40       	sbci	r31, 0x00	; 0
    10b4:	a2 2f       	mov	r26, r18
    10b6:	23 2f       	mov	r18, r19
    10b8:	34 2f       	mov	r19, r20
    10ba:	44 27       	eor	r20, r20
    10bc:	58 5f       	subi	r21, 0xF8	; 248
    10be:	f3 cf       	rjmp	.-26     	; 0x10a6 <__addsf3x+0x34>
    10c0:	46 95       	lsr	r20
    10c2:	37 95       	ror	r19
    10c4:	27 95       	ror	r18
    10c6:	a7 95       	ror	r26
    10c8:	f0 40       	sbci	r31, 0x00	; 0
    10ca:	53 95       	inc	r21
    10cc:	c9 f7       	brne	.-14     	; 0x10c0 <__addsf3x+0x4e>
    10ce:	7e f4       	brtc	.+30     	; 0x10ee <__addsf3x+0x7c>
    10d0:	1f 16       	cp	r1, r31
    10d2:	ba 0b       	sbc	r27, r26
    10d4:	62 0b       	sbc	r22, r18
    10d6:	73 0b       	sbc	r23, r19
    10d8:	84 0b       	sbc	r24, r20
    10da:	ba f0       	brmi	.+46     	; 0x110a <__addsf3x+0x98>
    10dc:	91 50       	subi	r25, 0x01	; 1
    10de:	a1 f0       	breq	.+40     	; 0x1108 <__addsf3x+0x96>
    10e0:	ff 0f       	add	r31, r31
    10e2:	bb 1f       	adc	r27, r27
    10e4:	66 1f       	adc	r22, r22
    10e6:	77 1f       	adc	r23, r23
    10e8:	88 1f       	adc	r24, r24
    10ea:	c2 f7       	brpl	.-16     	; 0x10dc <__addsf3x+0x6a>
    10ec:	0e c0       	rjmp	.+28     	; 0x110a <__addsf3x+0x98>
    10ee:	ba 0f       	add	r27, r26
    10f0:	62 1f       	adc	r22, r18
    10f2:	73 1f       	adc	r23, r19
    10f4:	84 1f       	adc	r24, r20
    10f6:	48 f4       	brcc	.+18     	; 0x110a <__addsf3x+0x98>
    10f8:	87 95       	ror	r24
    10fa:	77 95       	ror	r23
    10fc:	67 95       	ror	r22
    10fe:	b7 95       	ror	r27
    1100:	f7 95       	ror	r31
    1102:	9e 3f       	cpi	r25, 0xFE	; 254
    1104:	08 f0       	brcs	.+2      	; 0x1108 <__addsf3x+0x96>
    1106:	b3 cf       	rjmp	.-154    	; 0x106e <__addsf3+0x1e>
    1108:	93 95       	inc	r25
    110a:	88 0f       	add	r24, r24
    110c:	08 f0       	brcs	.+2      	; 0x1110 <__addsf3x+0x9e>
    110e:	99 27       	eor	r25, r25
    1110:	ee 0f       	add	r30, r30
    1112:	97 95       	ror	r25
    1114:	87 95       	ror	r24
    1116:	08 95       	ret

00001118 <__divsf3>:
    1118:	0c d0       	rcall	.+24     	; 0x1132 <__divsf3x>
    111a:	7d c0       	rjmp	.+250    	; 0x1216 <__fp_round>
    111c:	75 d0       	rcall	.+234    	; 0x1208 <__fp_pscB>
    111e:	40 f0       	brcs	.+16     	; 0x1130 <__divsf3+0x18>
    1120:	6c d0       	rcall	.+216    	; 0x11fa <__fp_pscA>
    1122:	30 f0       	brcs	.+12     	; 0x1130 <__divsf3+0x18>
    1124:	21 f4       	brne	.+8      	; 0x112e <__divsf3+0x16>
    1126:	5f 3f       	cpi	r21, 0xFF	; 255
    1128:	19 f0       	breq	.+6      	; 0x1130 <__divsf3+0x18>
    112a:	5e c0       	rjmp	.+188    	; 0x11e8 <__fp_inf>
    112c:	51 11       	cpse	r21, r1
    112e:	a7 c0       	rjmp	.+334    	; 0x127e <__fp_szero>
    1130:	61 c0       	rjmp	.+194    	; 0x11f4 <__fp_nan>

00001132 <__divsf3x>:
    1132:	82 d0       	rcall	.+260    	; 0x1238 <__fp_split3>
    1134:	98 f3       	brcs	.-26     	; 0x111c <__divsf3+0x4>

00001136 <__divsf3_pse>:
    1136:	99 23       	and	r25, r25
    1138:	c9 f3       	breq	.-14     	; 0x112c <__divsf3+0x14>
    113a:	55 23       	and	r21, r21
    113c:	b1 f3       	breq	.-20     	; 0x112a <__divsf3+0x12>
    113e:	95 1b       	sub	r25, r21
    1140:	55 0b       	sbc	r21, r21
    1142:	bb 27       	eor	r27, r27
    1144:	aa 27       	eor	r26, r26
    1146:	62 17       	cp	r22, r18
    1148:	73 07       	cpc	r23, r19
    114a:	84 07       	cpc	r24, r20
    114c:	38 f0       	brcs	.+14     	; 0x115c <__divsf3_pse+0x26>
    114e:	9f 5f       	subi	r25, 0xFF	; 255
    1150:	5f 4f       	sbci	r21, 0xFF	; 255
    1152:	22 0f       	add	r18, r18
    1154:	33 1f       	adc	r19, r19
    1156:	44 1f       	adc	r20, r20
    1158:	aa 1f       	adc	r26, r26
    115a:	a9 f3       	breq	.-22     	; 0x1146 <__divsf3_pse+0x10>
    115c:	33 d0       	rcall	.+102    	; 0x11c4 <__divsf3_pse+0x8e>
    115e:	0e 2e       	mov	r0, r30
    1160:	3a f0       	brmi	.+14     	; 0x1170 <__divsf3_pse+0x3a>
    1162:	e0 e8       	ldi	r30, 0x80	; 128
    1164:	30 d0       	rcall	.+96     	; 0x11c6 <__divsf3_pse+0x90>
    1166:	91 50       	subi	r25, 0x01	; 1
    1168:	50 40       	sbci	r21, 0x00	; 0
    116a:	e6 95       	lsr	r30
    116c:	00 1c       	adc	r0, r0
    116e:	ca f7       	brpl	.-14     	; 0x1162 <__divsf3_pse+0x2c>
    1170:	29 d0       	rcall	.+82     	; 0x11c4 <__divsf3_pse+0x8e>
    1172:	fe 2f       	mov	r31, r30
    1174:	27 d0       	rcall	.+78     	; 0x11c4 <__divsf3_pse+0x8e>
    1176:	66 0f       	add	r22, r22
    1178:	77 1f       	adc	r23, r23
    117a:	88 1f       	adc	r24, r24
    117c:	bb 1f       	adc	r27, r27
    117e:	26 17       	cp	r18, r22
    1180:	37 07       	cpc	r19, r23
    1182:	48 07       	cpc	r20, r24
    1184:	ab 07       	cpc	r26, r27
    1186:	b0 e8       	ldi	r27, 0x80	; 128
    1188:	09 f0       	breq	.+2      	; 0x118c <__divsf3_pse+0x56>
    118a:	bb 0b       	sbc	r27, r27
    118c:	80 2d       	mov	r24, r0
    118e:	bf 01       	movw	r22, r30
    1190:	ff 27       	eor	r31, r31
    1192:	93 58       	subi	r25, 0x83	; 131
    1194:	5f 4f       	sbci	r21, 0xFF	; 255
    1196:	2a f0       	brmi	.+10     	; 0x11a2 <__divsf3_pse+0x6c>
    1198:	9e 3f       	cpi	r25, 0xFE	; 254
    119a:	51 05       	cpc	r21, r1
    119c:	68 f0       	brcs	.+26     	; 0x11b8 <__divsf3_pse+0x82>
    119e:	24 c0       	rjmp	.+72     	; 0x11e8 <__fp_inf>
    11a0:	6e c0       	rjmp	.+220    	; 0x127e <__fp_szero>
    11a2:	5f 3f       	cpi	r21, 0xFF	; 255
    11a4:	ec f3       	brlt	.-6      	; 0x11a0 <__divsf3_pse+0x6a>
    11a6:	98 3e       	cpi	r25, 0xE8	; 232
    11a8:	dc f3       	brlt	.-10     	; 0x11a0 <__divsf3_pse+0x6a>
    11aa:	86 95       	lsr	r24
    11ac:	77 95       	ror	r23
    11ae:	67 95       	ror	r22
    11b0:	b7 95       	ror	r27
    11b2:	f7 95       	ror	r31
    11b4:	9f 5f       	subi	r25, 0xFF	; 255
    11b6:	c9 f7       	brne	.-14     	; 0x11aa <__divsf3_pse+0x74>
    11b8:	88 0f       	add	r24, r24
    11ba:	91 1d       	adc	r25, r1
    11bc:	96 95       	lsr	r25
    11be:	87 95       	ror	r24
    11c0:	97 f9       	bld	r25, 7
    11c2:	08 95       	ret
    11c4:	e1 e0       	ldi	r30, 0x01	; 1
    11c6:	66 0f       	add	r22, r22
    11c8:	77 1f       	adc	r23, r23
    11ca:	88 1f       	adc	r24, r24
    11cc:	bb 1f       	adc	r27, r27
    11ce:	62 17       	cp	r22, r18
    11d0:	73 07       	cpc	r23, r19
    11d2:	84 07       	cpc	r24, r20
    11d4:	ba 07       	cpc	r27, r26
    11d6:	20 f0       	brcs	.+8      	; 0x11e0 <__divsf3_pse+0xaa>
    11d8:	62 1b       	sub	r22, r18
    11da:	73 0b       	sbc	r23, r19
    11dc:	84 0b       	sbc	r24, r20
    11de:	ba 0b       	sbc	r27, r26
    11e0:	ee 1f       	adc	r30, r30
    11e2:	88 f7       	brcc	.-30     	; 0x11c6 <__divsf3_pse+0x90>
    11e4:	e0 95       	com	r30
    11e6:	08 95       	ret

000011e8 <__fp_inf>:
    11e8:	97 f9       	bld	r25, 7
    11ea:	9f 67       	ori	r25, 0x7F	; 127
    11ec:	80 e8       	ldi	r24, 0x80	; 128
    11ee:	70 e0       	ldi	r23, 0x00	; 0
    11f0:	60 e0       	ldi	r22, 0x00	; 0
    11f2:	08 95       	ret

000011f4 <__fp_nan>:
    11f4:	9f ef       	ldi	r25, 0xFF	; 255
    11f6:	80 ec       	ldi	r24, 0xC0	; 192
    11f8:	08 95       	ret

000011fa <__fp_pscA>:
    11fa:	00 24       	eor	r0, r0
    11fc:	0a 94       	dec	r0
    11fe:	16 16       	cp	r1, r22
    1200:	17 06       	cpc	r1, r23
    1202:	18 06       	cpc	r1, r24
    1204:	09 06       	cpc	r0, r25
    1206:	08 95       	ret

00001208 <__fp_pscB>:
    1208:	00 24       	eor	r0, r0
    120a:	0a 94       	dec	r0
    120c:	12 16       	cp	r1, r18
    120e:	13 06       	cpc	r1, r19
    1210:	14 06       	cpc	r1, r20
    1212:	05 06       	cpc	r0, r21
    1214:	08 95       	ret

00001216 <__fp_round>:
    1216:	09 2e       	mov	r0, r25
    1218:	03 94       	inc	r0
    121a:	00 0c       	add	r0, r0
    121c:	11 f4       	brne	.+4      	; 0x1222 <__fp_round+0xc>
    121e:	88 23       	and	r24, r24
    1220:	52 f0       	brmi	.+20     	; 0x1236 <__fp_round+0x20>
    1222:	bb 0f       	add	r27, r27
    1224:	40 f4       	brcc	.+16     	; 0x1236 <__fp_round+0x20>
    1226:	bf 2b       	or	r27, r31
    1228:	11 f4       	brne	.+4      	; 0x122e <__fp_round+0x18>
    122a:	60 ff       	sbrs	r22, 0
    122c:	04 c0       	rjmp	.+8      	; 0x1236 <__fp_round+0x20>
    122e:	6f 5f       	subi	r22, 0xFF	; 255
    1230:	7f 4f       	sbci	r23, 0xFF	; 255
    1232:	8f 4f       	sbci	r24, 0xFF	; 255
    1234:	9f 4f       	sbci	r25, 0xFF	; 255
    1236:	08 95       	ret

00001238 <__fp_split3>:
    1238:	57 fd       	sbrc	r21, 7
    123a:	90 58       	subi	r25, 0x80	; 128
    123c:	44 0f       	add	r20, r20
    123e:	55 1f       	adc	r21, r21
    1240:	59 f0       	breq	.+22     	; 0x1258 <__fp_splitA+0x10>
    1242:	5f 3f       	cpi	r21, 0xFF	; 255
    1244:	71 f0       	breq	.+28     	; 0x1262 <__fp_splitA+0x1a>
    1246:	47 95       	ror	r20

00001248 <__fp_splitA>:
    1248:	88 0f       	add	r24, r24
    124a:	97 fb       	bst	r25, 7
    124c:	99 1f       	adc	r25, r25
    124e:	61 f0       	breq	.+24     	; 0x1268 <__fp_splitA+0x20>
    1250:	9f 3f       	cpi	r25, 0xFF	; 255
    1252:	79 f0       	breq	.+30     	; 0x1272 <__fp_splitA+0x2a>
    1254:	87 95       	ror	r24
    1256:	08 95       	ret
    1258:	12 16       	cp	r1, r18
    125a:	13 06       	cpc	r1, r19
    125c:	14 06       	cpc	r1, r20
    125e:	55 1f       	adc	r21, r21
    1260:	f2 cf       	rjmp	.-28     	; 0x1246 <__fp_split3+0xe>
    1262:	46 95       	lsr	r20
    1264:	f1 df       	rcall	.-30     	; 0x1248 <__fp_splitA>
    1266:	08 c0       	rjmp	.+16     	; 0x1278 <__fp_splitA+0x30>
    1268:	16 16       	cp	r1, r22
    126a:	17 06       	cpc	r1, r23
    126c:	18 06       	cpc	r1, r24
    126e:	99 1f       	adc	r25, r25
    1270:	f1 cf       	rjmp	.-30     	; 0x1254 <__fp_splitA+0xc>
    1272:	86 95       	lsr	r24
    1274:	71 05       	cpc	r23, r1
    1276:	61 05       	cpc	r22, r1
    1278:	08 94       	sec
    127a:	08 95       	ret

0000127c <__fp_zero>:
    127c:	e8 94       	clt

0000127e <__fp_szero>:
    127e:	bb 27       	eor	r27, r27
    1280:	66 27       	eor	r22, r22
    1282:	77 27       	eor	r23, r23
    1284:	cb 01       	movw	r24, r22
    1286:	97 f9       	bld	r25, 7
    1288:	08 95       	ret

0000128a <__gesf2>:
    128a:	03 d0       	rcall	.+6      	; 0x1292 <__fp_cmp>
    128c:	08 f4       	brcc	.+2      	; 0x1290 <__gesf2+0x6>
    128e:	8f ef       	ldi	r24, 0xFF	; 255
    1290:	08 95       	ret

00001292 <__fp_cmp>:
    1292:	99 0f       	add	r25, r25
    1294:	00 08       	sbc	r0, r0
    1296:	55 0f       	add	r21, r21
    1298:	aa 0b       	sbc	r26, r26
    129a:	e0 e8       	ldi	r30, 0x80	; 128
    129c:	fe ef       	ldi	r31, 0xFE	; 254
    129e:	16 16       	cp	r1, r22
    12a0:	17 06       	cpc	r1, r23
    12a2:	e8 07       	cpc	r30, r24
    12a4:	f9 07       	cpc	r31, r25
    12a6:	c0 f0       	brcs	.+48     	; 0x12d8 <__fp_cmp+0x46>
    12a8:	12 16       	cp	r1, r18
    12aa:	13 06       	cpc	r1, r19
    12ac:	e4 07       	cpc	r30, r20
    12ae:	f5 07       	cpc	r31, r21
    12b0:	98 f0       	brcs	.+38     	; 0x12d8 <__fp_cmp+0x46>
    12b2:	62 1b       	sub	r22, r18
    12b4:	73 0b       	sbc	r23, r19
    12b6:	84 0b       	sbc	r24, r20
    12b8:	95 0b       	sbc	r25, r21
    12ba:	39 f4       	brne	.+14     	; 0x12ca <__fp_cmp+0x38>
    12bc:	0a 26       	eor	r0, r26
    12be:	61 f0       	breq	.+24     	; 0x12d8 <__fp_cmp+0x46>
    12c0:	23 2b       	or	r18, r19
    12c2:	24 2b       	or	r18, r20
    12c4:	25 2b       	or	r18, r21
    12c6:	21 f4       	brne	.+8      	; 0x12d0 <__fp_cmp+0x3e>
    12c8:	08 95       	ret
    12ca:	0a 26       	eor	r0, r26
    12cc:	09 f4       	brne	.+2      	; 0x12d0 <__fp_cmp+0x3e>
    12ce:	a1 40       	sbci	r26, 0x01	; 1
    12d0:	a6 95       	lsr	r26
    12d2:	8f ef       	ldi	r24, 0xFF	; 255
    12d4:	81 1d       	adc	r24, r1
    12d6:	81 1d       	adc	r24, r1
    12d8:	08 95       	ret

000012da <_exit>:
    12da:	f8 94       	cli

000012dc <__stop_program>:
    12dc:	ff cf       	rjmp	.-2      	; 0x12dc <__stop_program>
